(lp0
(dp1
S'src'
p2
Vhttps://fbcdn-sphotos-g-a.akamaihd.net/hphotos-ak-xpa1/v/t1.0-9/10933812_10155185572360434_3835275984982753422_n.jpg?oh=074c5545604db681ed9bccad754b598c&oe=555B3249&__gda__=1431638879_eeff56b3a8bb7bc025222391ed414154
p3
sS'name'
p4
VAutoTBT4154
p5
sa(dp6
g2
Vhttps://fbcdn-sphotos-a-a.akamaihd.net/hphotos-ak-xfp1/v/t1.0-9/10152407_10155185566755434_1947566741456554778_n.jpg?oh=7c0dd7644eada25bdeea4e6574d5cc88&oe=5552084E&__gda__=1432309291_ecd61d10e7233f5c3ebf2aec29578193
p7
sg4
VAutoTBT8193
p8
sa(dp9
g2
Vhttps://fbcdn-sphotos-d-a.akamaihd.net/hphotos-ak-xap1/t31.0-8/p417x417/1498946_10155185134440434_3127295393176144444_o.jpg
p10
sg4
Vart.jpg
p11
sa(dp12
g2
Vhttps://fbcdn-sphotos-f-a.akamaihd.net/hphotos-ak-xpf1/t31.0-8/s720x720/10911513_10155175449030434_6973865170488656083_o.jpg
p13
sg4
V10911513_10155175449030434_6973865170488656083_o.jpg
p14
sa(dp15
g2
Vhttps://fbcdn-sphotos-e-a.akamaihd.net/hphotos-ak-xpf1/t31.0-8/s720x720/1978360_10155175449025434_5974743397281106470_o.jpg
p16
sg4
V1978360_10155175449025434_5974743397281106470_o.jpg
p17
sa(dp18
g2
Vhttps://fbcdn-sphotos-c-a.akamaihd.net/hphotos-ak-xap1/t31.0-8/s720x720/10668804_10155160411865434_4618424969213077736_o.jpg
p19
sg4
V10668804_10155160411865434_4618424969213077736_o.jpg
p20
sa(dp21
g2
Vhttps://fbcdn-sphotos-a-a.akamaihd.net/hphotos-ak-xpa1/t31.0-8/p480x480/10960093_10155160410690434_7254315248514889746_o.jpg
p22
sg4
V10960093_10155160410690434_7254315248514889746_o.jpg
p23
sa(dp24
g2
Vhttps://scontent-a.xx.fbcdn.net/hphotos-xfp1/t31.0-8/s720x720/10945785_10155160409735434_6197006344979199832_o.jpg
p25
sg4
V10945785_10155160409735434_6197006344979199832_o.jpg
p26
sa(dp27
g2
Vhttps://fbcdn-sphotos-f-a.akamaihd.net/hphotos-ak-xpf1/t31.0-8/s720x720/1978306_10155160409405434_6827339513067307055_o.jpg
p28
sg4
V1978306_10155160409405434_6827339513067307055_o.jpg
p29
sa(dp30
g2
Vhttps://fbcdn-sphotos-d-a.akamaihd.net/hphotos-ak-xpa1/t31.0-8/s720x720/10835457_10155160408805434_3060692977052234478_o.jpg
p31
sg4
V10835457_10155160408805434_3060692977052234478_o.jpg
p32
sa(dp33
g2
Vhttps://fbcdn-sphotos-b-a.akamaihd.net/hphotos-ak-xfp1/t31.0-8/s720x720/10974600_10155160408605434_4963786096708342402_o.jpg
p34
sg4
Vhahaha where is my body do u get it.jpg
p35
sa(dp36
g2
Vhttps://fbcdn-sphotos-h-a.akamaihd.net/hphotos-ak-xap1/t31.0-8/p480x480/10911251_10155160408180434_3477637150475868925_o.jpg
p37
sg4
V10911251_10155160408180434_3477637150475868925_o.jpg
p38
sa(dp39
g2
Vhttps://fbcdn-sphotos-c-a.akamaihd.net/hphotos-ak-xfa1/v/t1.0-9/p720x720/1463165_10155159057135434_8515901658415962574_n.jpg?oh=d798752cb81a0ac3f98c55ba634a5c01&oe=554D449F&__gda__=1430985492_329c4407d51f9866e3fa2fa1da5aefa0
p40
sg4
V1463165_10155159057135434_8515901658415962574_n.jpg?oh=d798752cb81a0ac3f98c55ba634a5c01&oe=554D449F&__gda__=1430985492_329c4407d51f9866e3fa2fa1da5aefa0
p41
sa(dp42
g2
Vhttps://scontent-a.xx.fbcdn.net/hphotos-xpf1/v/t1.0-9/s720x720/10931274_10155159056975434_6578242144429646947_n.jpg?oh=c3603a9c89b8dfca4d044809d79cba04&oe=554E897A
p43
sg4
V10931274_10155159056975434_6578242144429646947_n.jpg?oh=c3603a9c89b8dfca4d044809d79cba04&oe=554E897A
p44
sa(dp45
g2
Vhttps://scontent-b.xx.fbcdn.net/hphotos-xpf1/v/t1.0-9/s720x720/10563011_10155159056895434_5638551143343187201_n.jpg?oh=8c2af4d2bee5c8676cde2681e1184769&oe=55679F06
p46
sg4
V10563011_10155159056895434_5638551143343187201_n.jpg?oh=8c2af4d2bee5c8676cde2681e1184769&oe=55679F06
p47
sa(dp48
g2
Vhttps://fbcdn-sphotos-d-a.akamaihd.net/hphotos-ak-xfp1/v/t1.0-9/s720x720/1479262_10155159056835434_6817312675023048789_n.jpg?oh=c328baa34f6d3cc6267749911a074e76&oe=5550F0BA&__gda__=1432503147_9c7d6065592eef90833f7524c86dfeec
p49
sg4
V1479262_10155159056835434_6817312675023048789_n.jpg?oh=c328baa34f6d3cc6267749911a074e76&oe=5550F0BA&__gda__=1432503147_9c7d6065592eef90833f7524c86dfeec
p50
sa(dp51
g2
Vhttps://scontent-b.xx.fbcdn.net/hphotos-xap1/v/t1.0-9/s720x720/1517642_10155159056705434_2906481291528502451_n.jpg?oh=a1867dad6374a0fe868e822d8b50a326&oe=555EDF51
p52
sg4
V1517642_10155159056705434_2906481291528502451_n.jpg?oh=a1867dad6374a0fe868e822d8b50a326&oe=555EDF51
p53
sa(dp54
g2
Vhttps://scontent-a.xx.fbcdn.net/hphotos-xpa1/v/t1.0-9/s720x720/10959667_10155159056650434_5754215640186850842_n.jpg?oh=e05fed6f79f965c58e9d026f8b0f7c55&oe=5563CDF1
p55
sg4
Vreunited blessCDF1
p56
sa(dp57
g2
Vhttps://fbcdn-sphotos-c-a.akamaihd.net/hphotos-ak-xpa1/v/t1.0-9/p720x720/10940427_10155159056595434_4826938470715349379_n.jpg?oh=70bdc915fea5be8967fba0778778fa62&oe=555CB636&__gda__=1430961865_5c3e5ab67d4ac017dd321cbd9cb5436e
p58
sg4
V10940427_10155159056595434_4826938470715349379_n.jpg?oh=70bdc915fea5be8967fba0778778fa62&oe=555CB636&__gda__=1430961865_5c3e5ab67d4ac017dd321cbd9cb5436e
p59
sa(dp60
g2
Vhttps://scontent-a.xx.fbcdn.net/hphotos-xpa1/v/t1.0-9/s720x720/10930903_10155159056520434_5139224530459701549_n.jpg?oh=d4adab9badc35ad5baf7bc8136a17417&oe=55656FF0
p61
sg4
V10930903_10155159056520434_5139224530459701549_n.jpg?oh=d4adab9badc35ad5baf7bc8136a17417&oe=55656FF0
p62
sa(dp63
g2
Vhttps://scontent-a.xx.fbcdn.net/hphotos-xfa1/v/t1.0-9/s720x720/10968488_10155159056445434_1848572547977842038_n.jpg?oh=51f555c8fb19d31124a65a035993e140&oe=55967BFE
p64
sg4
V10968488_10155159056445434_1848572547977842038_n.jpg?oh=51f555c8fb19d31124a65a035993e140&oe=55967BFE
p65
sa(dp66
g2
Vhttps://scontent-b.xx.fbcdn.net/hphotos-xpf1/v/l/t1.0-9/q81/s720x720/10942490_10155159056195434_5600930790097753259_n.jpg?oh=1c1dcb3d00e12d4b6905ea09ee0971d1&oe=55967B6E
p67
sg4
V10942490_10155159056195434_5600930790097753259_n.jpg?oh=1c1dcb3d00e12d4b6905ea09ee0971d1&oe=55967B6E
p68
sa(dp69
g2
Vhttps://fbcdn-sphotos-h-a.akamaihd.net/hphotos-ak-xpf1/v/t1.0-9/p480x480/10968507_10155159056070434_715570801809290259_n.jpg?oh=48ff0c74e8d5e5a8a6a1c466ab7a8279&oe=55637EB3&__gda__=1431456536_3e005cc7aaf7f89e8b7ad18d1ab74125
p70
sg4
V10968507_10155159056070434_715570801809290259_n.jpg?oh=48ff0c74e8d5e5a8a6a1c466ab7a8279&oe=55637EB3&__gda__=1431456536_3e005cc7aaf7f89e8b7ad18d1ab74125
p71
sa(dp72
g2
Vhttps://fbcdn-sphotos-g-a.akamaihd.net/hphotos-ak-xpa1/v/t1.0-9/s720x720/10926203_10155159055955434_124130056669351556_n.jpg?oh=7198edf908cf10fda219c7882b6ad8b0&oe=555691D8&__gda__=1431762205_617b2364c83c86c8179235a9deded6d6
p73
sg4
V10926203_10155159055955434_124130056669351556_n.jpg?oh=7198edf908cf10fda219c7882b6ad8b0&oe=555691D8&__gda__=1431762205_617b2364c83c86c8179235a9deded6d6
p74
sa(dp75
g2
Vhttps://fbcdn-sphotos-a-a.akamaihd.net/hphotos-ak-xfp1/v/t1.0-9/s720x720/10629720_10155159055760434_2233329272057134577_n.jpg?oh=0429fffecd2a6763d7823efe20012a54&oe=55939E26&__gda__=1435876831_e10289d73a4bb0107b007206b8172fb3
p76
sg4
V10629720_10155159055760434_2233329272057134577_n.jpg?oh=0429fffecd2a6763d7823efe20012a54&oe=55939E26&__gda__=1435876831_e10289d73a4bb0107b007206b8172fb3
p77
sa(dp78
g2
Vhttps://fbcdn-sphotos-c-a.akamaihd.net/hphotos-ak-xpa1/v/t1.0-9/q84/s720x720/10247299_10155159055660434_7150110911628160740_n.jpg?oh=ab54ca86e50319474f358771fbad934c&oe=555B0A26&__gda__=1431520416_80f9294ecf31d92ee8617997f56c4e3c
p79
sg4
V10247299_10155159055660434_7150110911628160740_n.jpg?oh=ab54ca86e50319474f358771fbad934c&oe=555B0A26&__gda__=1431520416_80f9294ecf31d92ee8617997f56c4e3c
p80
sa(dp81
g2
Vhttps://fbcdn-sphotos-e-a.akamaihd.net/hphotos-ak-xfa1/v/t1.0-9/s720x720/10945052_10155159055575434_4571704843258290420_n.jpg?oh=942bac4022027c17cfd2015c9c26d9d9&oe=556897E0&__gda__=1430843326_4d300f7752c8a6002505693fa066e3db
p82
sg4
V10945052_10155159055575434_4571704843258290420_n.jpg?oh=942bac4022027c17cfd2015c9c26d9d9&oe=556897E0&__gda__=1430843326_4d300f7752c8a6002505693fa066e3db
p83
sa(dp84
g2
Vhttps://scontent-b.xx.fbcdn.net/hphotos-xfp1/v/t1.0-9/q82/s720x720/10952589_10155159055455434_6241169994994802079_n.jpg?oh=a8233960b3c6c66ab2ce00e5020f3ff3&oe=55921F82
p85
sg4
V10952589_10155159055455434_6241169994994802079_n.jpg?oh=a8233960b3c6c66ab2ce00e5020f3ff3&oe=55921F82
p86
sa(dp87
g2
Vhttps://fbcdn-sphotos-b-a.akamaihd.net/hphotos-ak-xpa1/v/t1.0-9/s720x720/10930903_10155159055370434_5217642884277165280_n.jpg?oh=678f699adea53a83b37239989b6c9d3a&oe=555E8C66&__gda__=1432087961_c44bfb853d856b36850102811313eae9
p88
sg4
V10930903_10155159055370434_5217642884277165280_n.jpg?oh=678f699adea53a83b37239989b6c9d3a&oe=555E8C66&__gda__=1432087961_c44bfb853d856b36850102811313eae9
p89
sa(dp90
g2
Vhttps://fbcdn-sphotos-d-a.akamaihd.net/hphotos-ak-xap1/v/t1.0-9/s720x720/10968394_10155159055280434_8696902996566440242_n.jpg?oh=b6723e4dc5414905434123f3e104ce4f&oe=55568A96&__gda__=1435633965_9f9293f03166ac705cd36782834db48b
p91
sg4
V10968394_10155159055280434_8696902996566440242_n.jpg?oh=b6723e4dc5414905434123f3e104ce4f&oe=55568A96&__gda__=1435633965_9f9293f03166ac705cd36782834db48b
p92
sa(dp93
g2
Vhttps://fbcdn-sphotos-f-a.akamaihd.net/hphotos-ak-xpa1/v/t1.0-9/s720x720/10934087_10155159055175434_846714028957013703_n.jpg?oh=8465c17bd3d5a927c4fc38d0a0e690a2&oe=55575D88&__gda__=1430852429_5c8ccdafabebcbeace86fc15e3418b64
p94
sg4
V10934087_10155159055175434_846714028957013703_n.jpg?oh=8465c17bd3d5a927c4fc38d0a0e690a2&oe=55575D88&__gda__=1430852429_5c8ccdafabebcbeace86fc15e3418b64
p95
sa(dp96
g2
Vhttps://fbcdn-sphotos-a-a.akamaihd.net/hphotos-ak-xpa1/v/t1.0-9/s720x720/10462516_10155159055095434_2904103844929874422_n.jpg?oh=4bc56c5f4fccc4172e7f3856ec225095&oe=55636995&__gda__=1431270250_04797b2323ec140d49345ea37a161b26
p97
sg4
V10462516_10155159055095434_2904103844929874422_n.jpg?oh=4bc56c5f4fccc4172e7f3856ec225095&oe=55636995&__gda__=1431270250_04797b2323ec140d49345ea37a161b26
p98
sa(dp99
g2
Vhttps://fbcdn-sphotos-g-a.akamaihd.net/hphotos-ak-xfp1/v/t1.0-9/s720x720/10433797_10155159054985434_5766467415626545822_n.jpg?oh=0a0bd51fe6e9c13e28deec3a6010a710&oe=55604F41&__gda__=1431864760_0cfdb1831b64e784b80ebfd10a791cc8
p100
sg4
V10433797_10155159054985434_5766467415626545822_n.jpg?oh=0a0bd51fe6e9c13e28deec3a6010a710&oe=55604F41&__gda__=1431864760_0cfdb1831b64e784b80ebfd10a791cc8
p101
sa(dp102
g2
Vhttps://scontent-b.xx.fbcdn.net/hphotos-xfp1/v/t1.0-9/s720x720/10906400_10155159054880434_3506517332642270951_n.jpg?oh=d6dd0e03c4d20becc888990734e972f4&oe=554D0486
p103
sg4
V10906400_10155159054880434_3506517332642270951_n.jpg?oh=d6dd0e03c4d20becc888990734e972f4&oe=554D0486
p104
sa(dp105
g2
Vhttps://scontent-b.xx.fbcdn.net/hphotos-xpf1/v/t1.0-9/s720x720/16229_10155159054780434_1467240760742630074_n.jpg?oh=68af234f3b29e8bcfc6bf497a10eb30f&oe=55577CB7
p106
sg4
V16229_10155159054780434_1467240760742630074_n.jpg?oh=68af234f3b29e8bcfc6bf497a10eb30f&oe=55577CB7
p107
sa(dp108
g2
Vhttps://fbcdn-sphotos-f-a.akamaihd.net/hphotos-ak-xap1/v/t1.0-9/p480x480/10926419_10155150171605434_6400626634791480555_n.jpg?oh=a576591e875b5f4f866b20496b5803b0&oe=5561B9EF&__gda__=1431063380_1bf9ceeca5e02b1ab0a9b0fcc57b0616
p109
sg4
VLess than two weeks until Datsik brings his Ninja Nation Tour to Pittsburgh Make sure to get your 0616
p110
sa(dp111
g2
Vhttps://scontent-a.xx.fbcdn.net/hphotos-xpa1/t31.0-8/s720x720/10903835_10155145851530434_5142911294816718837_o.jpg
p112
sg4
V10903835_10155145851530434_5142911294816718837_o.jpg
p113
sa(dp114
g2
Vhttps://fbcdn-sphotos-e-a.akamaihd.net/hphotos-ak-xap1/t31.0-8/s720x720/10887613_10155145851505434_7575672681198825994_o.jpg
p115
sg4
V10887613_10155145851505434_7575672681198825994_o.jpg
p116
sa(dp117
g2
Vhttps://scontent-a.xx.fbcdn.net/hphotos-xfp1/t31.0-8/s720x720/10943688_10155145851355434_2763703353429842309_o.jpg
p118
sg4
V10943688_10155145851355434_2763703353429842309_o.jpg
p119
sa(dp120
g2
Vhttps://scontent-a.xx.fbcdn.net/hphotos-xap1/t31.0-8/s720x720/10926832_10155145851350434_600846783423296_o.jpg
p121
sg4
V10926832_10155145851350434_600846783423296_o.jpg
p122
sa(dp123
g2
Vhttps://scontent-b.xx.fbcdn.net/hphotos-xfp1/t31.0-8/s720x720/10953014_10155145851345434_6397226769946253242_o.jpg
p124
sg4
V10953014_10155145851345434_6397226769946253242_o.jpg
p125
sa(dp126
g2
Vhttps://fbcdn-sphotos-h-a.akamaihd.net/hphotos-ak-xap1/t31.0-8/s720x720/10915020_10155145851180434_2942336040911554473_o.jpg
p127
sg4
V10915020_10155145851180434_2942336040911554473_o.jpg
p128
sa(dp129
g2
Vhttps://scontent-b.xx.fbcdn.net/hphotos-xap1/t31.0-8/s720x720/10626323_10155145851170434_8536178622402704802_o.jpg
p130
sg4
V10626323_10155145851170434_8536178622402704802_o.jpg
p131
sa(dp132
g2
Vhttps://scontent-b.xx.fbcdn.net/hphotos-xap1/t31.0-8/s720x720/10863950_10155145851140434_3575316948566176058_o.jpg
p133
sg4
V10863950_10155145851140434_3575316948566176058_o.jpg
p134
sa(dp135
g2
Vhttps://scontent-a.xx.fbcdn.net/hphotos-xap1/v/t1.0-9/s720x720/10931443_10155133224340434_4424185749447300374_n.jpg?oh=f439cefb9a8ad393e4a19ea7a280e84d&oe=5569A80D
p136
sg4
V10931443_10155133224340434_4424185749447300374_n.jpg?oh=f439cefb9a8ad393e4a19ea7a280e84d&oe=5569A80D
p137
sa(dp138
g2
Vhttps://fbcdn-sphotos-e-a.akamaihd.net/hphotos-ak-xfp1/v/t1.0-9/s720x720/10943853_10155133224255434_539688052429141723_n.jpg?oh=223eb4789b55674c96d98613ea1b6e39&oe=555B3B6B&__gda__=1432424890_541106e0e40356fc9489708e529e18e4
p139
sg4
V10943853_10155133224255434_539688052429141723_n.jpg?oh=223eb4789b55674c96d98613ea1b6e39&oe=555B3B6B&__gda__=1432424890_541106e0e40356fc9489708e529e18e4
p140
sa(dp141
g2
Vhttps://fbcdn-sphotos-c-a.akamaihd.net/hphotos-ak-xfa1/v/t1.0-9/s720x720/10455330_10155133224170434_5741702372930480078_n.jpg?oh=957a287f1372b93a2c4429d5f66e3bae&oe=55560E2F&__gda__=1432270449_39fe1cb573cfe084845b36993226375f
p142
sg4
V10455330_10155133224170434_5741702372930480078_n.jpg?oh=957a287f1372b93a2c4429d5f66e3bae&oe=55560E2F&__gda__=1432270449_39fe1cb573cfe084845b36993226375f
p143
sa(dp144
g2
Vhttps://scontent-b.xx.fbcdn.net/hphotos-prn2/v/t1.0-9/p720x720/10429290_10155133222735434_1351912742121187540_n.jpg?oh=8b5f1c6a210b38f90a89e7ff6dec1dd2&oe=5558CCB6
p145
sg4
V10429290_10155133222735434_1351912742121187540_n.jpg?oh=8b5f1c6a210b38f90a89e7ff6dec1dd2&oe=5558CCB6
p146
sa(dp147
g2
Vhttps://fbcdn-sphotos-b-a.akamaihd.net/hphotos-ak-xfa1/v/t1.0-9/s720x720/1493230_10155133222665434_4671490341377851618_n.jpg?oh=28bd99aa08161715c8478812f022446a&oe=5564F6EA&__gda__=1432710497_3fc9601001917f66d3a500fc420d246c
p148
sg4
V1493230_10155133222665434_4671490341377851618_n.jpg?oh=28bd99aa08161715c8478812f022446a&oe=5564F6EA&__gda__=1432710497_3fc9601001917f66d3a500fc420d246c
p149
sa(dp150
g2
Vhttps://scontent-a.xx.fbcdn.net/hphotos-xpa1/v/t1.0-9/s720x720/10409264_10155133222595434_8351230145454925360_n.jpg?oh=f05f2daa66bcd6ef542cb41621f60882&oe=556345B7
p151
sg4
Vanimal support45B7
p152
sa(dp153
g2
Vhttps://fbcdn-sphotos-g-a.akamaihd.net/hphotos-ak-xap1/v/t1.0-9/s720x720/10940529_10155133222515434_6307557436609107166_n.jpg?oh=4f370efef4d53a79ccf1f1e3af5512bb&oe=554AD928&__gda__=1435658899_8a1321098023eaa23f37245a18912ab3
p154
sg4
Vbringing back 3OH3 2ab3
p155
sa(dp156
g2
Vhttps://scontent-a.xx.fbcdn.net/hphotos-xfp1/v/t1.0-9/s720x720/1524871_10155133222460434_2068312033419091930_n.jpg?oh=7588e47f9d4d43576f2ae76e4da54b60&oe=55955024
p157
sg4
Vweatshirt5024
p158
sa(dp159
g2
Vhttps://fbcdn-sphotos-c-a.akamaihd.net/hphotos-ak-xpa1/v/t1.0-9/s720x720/10941878_10155133222375434_5013692685916271818_n.jpg?oh=991929e98c32a8f7aedd6ff8624424f6&oe=55589966&__gda__=1430967705_2e35faf498328ebbfc6ed19c0eacbbd6
p160
sg4
V10941878_10155133222375434_5013692685916271818_n.jpg?oh=991929e98c32a8f7aedd6ff8624424f6&oe=55589966&__gda__=1430967705_2e35faf498328ebbfc6ed19c0eacbbd6
p161
sa(dp162
g2
Vhttps://scontent-b.xx.fbcdn.net/hphotos-xpa1/v/t1.0-9/s720x720/10941902_10155133222310434_6294059197823260507_n.jpg?oh=9b87e438be6d71549b9a63a45caf6f45&oe=55569A8A
p163
sg4
V10941902_10155133222310434_6294059197823260507_n.jpg?oh=9b87e438be6d71549b9a63a45caf6f45&oe=55569A8A
p164
sa(dp165
g2
Vhttps://scontent-b.xx.fbcdn.net/hphotos-xap1/v/t1.0-9/s720x720/10945608_10155133222255434_578788315468133534_n.jpg?oh=2f166d053b3a57fc4d8ce57a4539895e&oe=5592DB91
p166
sg4
V10945608_10155133222255434_578788315468133534_n.jpg?oh=2f166d053b3a57fc4d8ce57a4539895e&oe=5592DB91
p167
sa(dp168
g2
Vhttps://fbcdn-sphotos-f-a.akamaihd.net/hphotos-ak-xpf1/v/t1.0-9/s720x720/10868281_10155133222200434_8107973101817222198_n.jpg?oh=af0b7b297151c0496c7903fda38bfaca&oe=55511B0E&__gda__=1431706648_e244ce5fdc95383d3b875b6eac48e70c
p169
sg4
V10868281_10155133222200434_8107973101817222198_n.jpg?oh=af0b7b297151c0496c7903fda38bfaca&oe=55511B0E&__gda__=1431706648_e244ce5fdc95383d3b875b6eac48e70c
p170
sa(dp171
g2
Vhttps://scontent-b.xx.fbcdn.net/hphotos-xpa1/v/t1.0-9/s720x720/10933718_10155130493395434_1687252400547673621_n.jpg?oh=42acebc4a95d384efbae41a65eaac1fc&oe=5556F18B
p172
sg4
Vangee in pain take 2F18B
p173
sa(dp174
g2
Vhttps://fbcdn-sphotos-a-a.akamaihd.net/hphotos-ak-xpa1/v/t1.0-9/s720x720/1525206_10155130493315434_6357163880318269040_n.jpg?oh=930415ec7ebdd0083256fde4cecbc44f&oe=5549B295&__gda__=1431095632_1929501506cf5e1b15e4d85823280e88
p175
sg4
V1525206_10155130493315434_6357163880318269040_n.jpg?oh=930415ec7ebdd0083256fde4cecbc44f&oe=5549B295&__gda__=1431095632_1929501506cf5e1b15e4d85823280e88
p176
sa(dp177
g2
Vhttps://fbcdn-sphotos-g-a.akamaihd.net/hphotos-ak-xaf1/t31.0-8/s720x720/10922339_10155130453445434_2879546555229662683_o.jpg
p178
sg4
V10922339_10155130453445434_2879546555229662683_o.jpg
p179
sa(dp180
g2
Vhttps://scontent-b.xx.fbcdn.net/hphotos-xfp1/t31.0-8/s720x720/10945702_10155130445420434_5757510860728158622_o.jpg
p181
sg4
V10945702_10155130445420434_5757510860728158622_o.jpg
p182
sa(dp183
g2
Vhttps://scontent-b.xx.fbcdn.net/hphotos-xap1/t31.0-8/p480x480/10916341_10155130445340434_2090212336230729120_o.jpg
p184
sg4
V10916341_10155130445340434_2090212336230729120_o.jpg
p185
sa(dp186
g2
Vhttps://scontent-b.xx.fbcdn.net/hphotos-xfp1/t31.0-8/s720x720/10626251_10155130445335434_7984435951733212558_o.jpg
p187
sg4
V10626251_10155130445335434_7984435951733212558_o.jpg
p188
sa(dp189
g2
Vhttps://scontent-b.xx.fbcdn.net/hphotos-xpf1/t31.0-8/s720x720/10924255_10155130445330434_4510031545730679350_o.jpg
p190
sg4
V10924255_10155130445330434_4510031545730679350_o.jpg
p191
sa(dp192
g2
Vhttps://fbcdn-sphotos-g-a.akamaihd.net/hphotos-ak-xpf1/t31.0-8/s720x720/10869513_10155130431335434_5645088769752419201_o.jpg
p193
sg4
Vill puke on you if you try and tell me were all the same.jpg
p194
sa(dp195
g2
Vhttps://scontent-a.xx.fbcdn.net/hphotos-xpa1/v/t1.0-9/s720x720/10923193_10155120709570434_724975892848211872_n.jpg?oh=dc670818630ef9b2f6a49d35e6567095&oe=555062EE
p196
sg4
Vilford62EE
p197
sa(dp198
g2
Vhttps://fbcdn-sphotos-e-a.akamaihd.net/hphotos-ak-xpa1/v/t1.0-9/s720x720/10940531_10155120709460434_364078052304201316_n.jpg?oh=28d6dde25d40d67eb78ed1d1b001d0f1&oe=554AB736&__gda__=1431437043_6b0a35458cfccbf9156c5998af812379
p199
sg4
Vartistic creds to bernard2379
p200
sa(dp201
g2
Vhttps://scontent-b.xx.fbcdn.net/hphotos-xap1/t31.0-8/s720x720/10848972_10155120709365434_4382822013727023740_o.jpg
p202
sg4
V10848972_10155120709365434_4382822013727023740_o.jpg
p203
sa(dp204
g2
Vhttps://fbcdn-sphotos-h-a.akamaihd.net/hphotos-ak-xpf1/v/t1.0-9/s720x720/10417617_10155120709280434_6941833887861351382_n.jpg?oh=918e13c77d17e43a56f23715052285a0&oe=5595CBD4&__gda__=1431233986_de655ba3bd79ba659c66fd8f0e8e47bb
p205
sg4
Vdisgusting47bb
p206
sa(dp207
g2
Vhttps://scontent-a.xx.fbcdn.net/hphotos-xaf1/v/t1.0-9/s720x720/10940410_10155118890450434_5047764661636981552_n.jpg?oh=cb38de44f3d7405ec749f648bdb177d0&oe=5568A281
p208
sg4
V10940410_10155118890450434_5047764661636981552_n.jpg?oh=cb38de44f3d7405ec749f648bdb177d0&oe=5568A281
p209
sa(dp210
g2
Vhttps://fbcdn-sphotos-c-a.akamaihd.net/hphotos-ak-xfp1/v/t1.0-9/s720x720/10353724_10155118890360434_5236606677313096487_n.jpg?oh=3b45f31a42555ebb86e6be6c5d038a13&oe=55930300&__gda__=1432462841_7cf77058ec1281d630b5f92acd094446
p211
sg4
V10353724_10155118890360434_5236606677313096487_n.jpg?oh=3b45f31a42555ebb86e6be6c5d038a13&oe=55930300&__gda__=1432462841_7cf77058ec1281d630b5f92acd094446
p212
sa(dp213
g2
Vhttps://fbcdn-sphotos-e-a.akamaihd.net/hphotos-ak-xpa1/v/t1.0-9/s720x720/1969253_10155118890295434_6680313081047387293_n.jpg?oh=f0ce31f8d6b9da2e6a8b0c8b6925b9c3&oe=55920A39&__gda__=1432357116_7b5d1248569f13f8df938c8bc42d4700
p214
sg4
V1969253_10155118890295434_6680313081047387293_n.jpg?oh=f0ce31f8d6b9da2e6a8b0c8b6925b9c3&oe=55920A39&__gda__=1432357116_7b5d1248569f13f8df938c8bc42d4700
p215
sa(dp216
g2
Vhttps://scontent-b.xx.fbcdn.net/hphotos-xpf1/v/t1.0-9/s720x720/10943863_10155118890230434_4903246870648919470_n.jpg?oh=b0a41c2eade23249966d1e2beadb4950&oe=5569707F
p217
sg4
V10943863_10155118890230434_4903246870648919470_n.jpg?oh=b0a41c2eade23249966d1e2beadb4950&oe=5569707F
p218
sa(dp219
g2
Vhttps://fbcdn-sphotos-b-a.akamaihd.net/hphotos-ak-xfp1/v/t1.0-9/s720x720/10881666_10155118890190434_4629651725185130420_n.jpg?oh=f380f2d00c344b0d8af797954b8aab94&oe=55682304&__gda__=1431423485_70593753f9f4739fe43eb70e4d9cc004
p220
sg4
V10881666_10155118890190434_4629651725185130420_n.jpg?oh=f380f2d00c344b0d8af797954b8aab94&oe=55682304&__gda__=1431423485_70593753f9f4739fe43eb70e4d9cc004
p221
sa(dp222
g2
Vhttps://fbcdn-sphotos-d-a.akamaihd.net/hphotos-ak-xap1/v/t1.0-9/s720x720/10514582_10155118890125434_705162297398346482_n.jpg?oh=5a8de802b9ed0f9b7b5e4b86682c62fb&oe=55970D05&__gda__=1432109117_84a8cd91360e417e6bd029be4d0f8174
p223
sg4
V10514582_10155118890125434_705162297398346482_n.jpg?oh=5a8de802b9ed0f9b7b5e4b86682c62fb&oe=55970D05&__gda__=1432109117_84a8cd91360e417e6bd029be4d0f8174
p224
sa(dp225
g2
Vhttps://scontent-b.xx.fbcdn.net/hphotos-xfp1/v/t1.0-9/s720x720/10922439_10155118890085434_7745830430819915026_n.jpg?oh=b02414cdef610d1f5d50da099ac26c9c&oe=55595CB3
p226
sg4
V10922439_10155118890085434_7745830430819915026_n.jpg?oh=b02414cdef610d1f5d50da099ac26c9c&oe=55595CB3
p227
sa(dp228
g2
Vhttps://fbcdn-sphotos-c-a.akamaihd.net/hphotos-ak-xpa1/t31.0-8/p480x480/10911393_10155115531785434_3994928800220631758_o.jpg
p229
sg4
V10911393_10155115531785434_3994928800220631758_o.jpg
p230
sa(dp231
g2
Vhttps://fbcdn-sphotos-e-a.akamaihd.net/hphotos-ak-xpa1/t31.0-8/s720x720/1613994_10155115531770434_81002586019472894_o.jpg
p232
sg4
V1613994_10155115531770434_81002586019472894_o.jpg
p233
sa(dp234
g2
Vhttps://scontent-b.xx.fbcdn.net/hphotos-xfp1/t31.0-8/s720x720/10857117_10155115531765434_2749426102235690273_o.jpg
p235
sg4
V10857117_10155115531765434_2749426102235690273_o.jpg
p236
sa(dp237
g2
Vhttps://fbcdn-sphotos-d-a.akamaihd.net/hphotos-ak-xfp1/t31.0-8/s720x720/1421107_10155115531585434_1911302450521362632_o.jpg
p238
sg4
V1421107_10155115531585434_1911302450521362632_o.jpg
p239
sa(dp240
g2
Vhttps://scontent-b.xx.fbcdn.net/hphotos-xpa1/t31.0-8/p480x480/10927521_10155115531575434_3245944192351152417_o.jpg
p241
sg4
V10927521_10155115531575434_3245944192351152417_o.jpg
p242
sa(dp243
g2
Vhttps://fbcdn-sphotos-h-a.akamaihd.net/hphotos-ak-xap1/t31.0-8/s720x720/10903797_10155115531570434_6315075191972049233_o.jpg
p244
sg4
V10903797_10155115531570434_6315075191972049233_o.jpg
p245
sa(dp246
g2
Vhttps://fbcdn-sphotos-e-a.akamaihd.net/hphotos-ak-xpf1/t31.0-8/s720x720/10911281_10155114057245434_8733580341848246492_o.jpg
p247
sg4
V10911281_10155114057245434_8733580341848246492_o.jpg
p248
sa(dp249
g2
Vhttps://fbcdn-sphotos-c-a.akamaihd.net/hphotos-ak-xpf1/t31.0-8/s720x720/10926347_10155114057240434_7800549729387442409_o.jpg
p250
sg4
V10926347_10155114057240434_7800549729387442409_o.jpg
p251
sa(dp252
g2
Vhttps://fbcdn-sphotos-a-a.akamaihd.net/hphotos-ak-xfp1/t31.0-8/q83/s720x720/10838197_10155114057225434_7534520323522719291_o.jpg
p253
sg4
V10838197_10155114057225434_7534520323522719291_o.jpg
p254
sa(dp255
g2
Vhttps://fbcdn-sphotos-g-a.akamaihd.net/hphotos-ak-prn1/t31.0-8/p480x480/10914785_10155114052000434_60014290588710363_o.jpg
p256
sg4
V--).jpg
p257
sa(dp258
g2
Vhttps://scontent-b.xx.fbcdn.net/hphotos-xap1/v/t1.0-9/s720x720/1625628_10155113048370434_7367736801735869412_n.jpg?oh=e96e6d20d13bfc3cce0c14bf572ead5d&oe=554DC748
p259
sg4
V1625628_10155113048370434_7367736801735869412_n.jpg?oh=e96e6d20d13bfc3cce0c14bf572ead5d&oe=554DC748
p260
sa(dp261
g2
Vhttps://scontent-a.xx.fbcdn.net/hphotos-xpa1/v/t1.0-9/s720x720/10933926_10155113048285434_6164157603814861589_n.jpg?oh=eb5b04c8c694f96025356e8bd813b821&oe=5594DE40
p262
sg4
V10933926_10155113048285434_6164157603814861589_n.jpg?oh=eb5b04c8c694f96025356e8bd813b821&oe=5594DE40
p263
sa(dp264
g2
Vhttps://fbcdn-sphotos-c-a.akamaihd.net/hphotos-ak-xpa1/v/t1.0-9/s720x720/10421363_10155113048195434_1757217536448468823_n.jpg?oh=2640160d769e7d8a6bbdf14942013d69&oe=55925088&__gda__=1432242039_824a1fc96a8447b595f8f853258b9db9
p265
sg4
V10421363_10155113048195434_1757217536448468823_n.jpg?oh=2640160d769e7d8a6bbdf14942013d69&oe=55925088&__gda__=1432242039_824a1fc96a8447b595f8f853258b9db9
p266
sa(dp267
g2
Vhttps://fbcdn-sphotos-a-a.akamaihd.net/hphotos-ak-xpf1/v/t1.0-9/s720x720/10941841_10155113048060434_4870931365463383380_n.jpg?oh=33d7e48ad4339c7b7fb33d8ddf11d1c7&oe=5559D4C3&__gda__=1432632277_45108f434a4ad4618f3f25f2d91a29ca
p268
sg4
V10941841_10155113048060434_4870931365463383380_n.jpg?oh=33d7e48ad4339c7b7fb33d8ddf11d1c7&oe=5559D4C3&__gda__=1432632277_45108f434a4ad4618f3f25f2d91a29ca
p269
sa(dp270
g2
Vhttps://fbcdn-sphotos-g-a.akamaihd.net/hphotos-ak-xfp1/v/t1.0-9/s720x720/936048_10155113047920434_6363402363623121036_n.jpg?oh=b2a26b4f7306a8f76c0237b3e891baaa&oe=5596F330&__gda__=1432032256_a160314e51e1f52d907a3256771db9b0
p271
sg4
V936048_10155113047920434_6363402363623121036_n.jpg?oh=b2a26b4f7306a8f76c0237b3e891baaa&oe=5596F330&__gda__=1432032256_a160314e51e1f52d907a3256771db9b0
p272
sa(dp273
g2
Vhttps://scontent-b.xx.fbcdn.net/hphotos-xpf1/v/t1.0-9/s720x720/10392477_10155113047820434_7783527618123687729_n.jpg?oh=cc4f5a05b46938cd49769150db70959b&oe=5559C4AA
p274
sg4
V10392477_10155113047820434_7783527618123687729_n.jpg?oh=cc4f5a05b46938cd49769150db70959b&oe=5559C4AA
p275
sa(dp276
g2
Vhttps://scontent-b.xx.fbcdn.net/hphotos-xpf1/v/t1.0-9/s720x720/10917047_10155113047750434_4760020317789437340_n.jpg?oh=8092c73841654852d84170badb5c017e&oe=5548FF13
p277
sg4
V10917047_10155113047750434_4760020317789437340_n.jpg?oh=8092c73841654852d84170badb5c017e&oe=5548FF13
p278
sa(dp279
g2
Vhttps://scontent-b.xx.fbcdn.net/hphotos-xpa1/v/t1.0-9/s720x720/10940571_10155104003225434_1809387299260065157_n.jpg?oh=9ba8ccb5ba91f9ad70819130db5da541&oe=555D53F8
p280
sg4
V10940571_10155104003225434_1809387299260065157_n.jpg?oh=9ba8ccb5ba91f9ad70819130db5da541&oe=555D53F8
p281
sa(dp282
g2
Vhttps://fbcdn-sphotos-e-a.akamaihd.net/hphotos-ak-xap1/v/t1.0-9/s720x720/10940513_10155104003175434_5008650241781637568_n.jpg?oh=06a545ee8e26ed83ccc0d66c42da68ae&oe=5595262C&__gda__=1430832791_17210fd5ddd8c1f1d0cc53a3a80421de
p283
sg4
V10940513_10155104003175434_5008650241781637568_n.jpg?oh=06a545ee8e26ed83ccc0d66c42da68ae&oe=5595262C&__gda__=1430832791_17210fd5ddd8c1f1d0cc53a3a80421de
p284
sa(dp285
g2
Vhttps://scontent-a.xx.fbcdn.net/hphotos-xfp1/v/t1.0-9/s720x720/10603578_10155104001475434_4189881786348537562_n.jpg?oh=771ebb00fada613240bb1f2f85503cbd&oe=5556A5B2
p286
sg4
V10603578_10155104001475434_4189881786348537562_n.jpg?oh=771ebb00fada613240bb1f2f85503cbd&oe=5556A5B2
p287
sa(dp288
g2
Vhttps://scontent-b.xx.fbcdn.net/hphotos-xap1/v/t1.0-9/s720x720/10407052_10155104001000434_5524737380496264857_n.jpg?oh=7d44d1c9d86fd04a99c765497ffd0a74&oe=55925669
p289
sg4
Vwhite boys on tinder5669
p290
sa(dp291
g2
Vhttps://fbcdn-sphotos-f-a.akamaihd.net/hphotos-ak-xap1/v/t1.0-9/s720x720/10923472_10155104000885434_3632189254961353239_n.jpg?oh=014fadcdf0344e38b2e746fa16987e8e&oe=55934805&__gda__=1430956222_f7505f5d6337b0c8e205b4e08eee5e8a
p292
sg4
V10923472_10155104000885434_3632189254961353239_n.jpg?oh=014fadcdf0344e38b2e746fa16987e8e&oe=55934805&__gda__=1430956222_f7505f5d6337b0c8e205b4e08eee5e8a
p293
sa(dp294
g2
Vhttps://scontent-b.xx.fbcdn.net/hphotos-xap1/v/t1.0-9/q87/s720x720/10897744_10155085659560434_4806059209342822741_n.jpg?oh=4f05b38cebd32c0f1f0540089ca1d84d&oe=555EF0E9
p295
sg4
V10897744_10155085659560434_4806059209342822741_n.jpg?oh=4f05b38cebd32c0f1f0540089ca1d84d&oe=555EF0E9
p296
sa(dp297
g2
Vhttps://scontent-a.xx.fbcdn.net/hphotos-xfa1/v/t1.0-9/s720x720/10929224_10155085659170434_2768624181927965648_n.jpg?oh=0182341d08bf739317b042ea71cb9c2d&oe=55573BF1
p298
sg4
V10929224_10155085659170434_2768624181927965648_n.jpg?oh=0182341d08bf739317b042ea71cb9c2d&oe=55573BF1
p299
sa(dp300
g2
Vhttps://scontent-a.xx.fbcdn.net/hphotos-xap1/v/t1.0-9/s720x720/10917826_10155085658725434_2797900682039605472_n.jpg?oh=31449dd484bf08e53a70367d3aa08a39&oe=5568248A
p301
sg4
V10917826_10155085658725434_2797900682039605472_n.jpg?oh=31449dd484bf08e53a70367d3aa08a39&oe=5568248A
p302
sa(dp303
g2
Vhttps://scontent-a.xx.fbcdn.net/hphotos-xap1/v/t1.0-9/s720x720/10898112_10155085658350434_7086934721958667175_n.jpg?oh=7f31b03f80897709927019dd41251c4e&oe=55954A7B
p304
sg4
V10898112_10155085658350434_7086934721958667175_n.jpg?oh=7f31b03f80897709927019dd41251c4e&oe=55954A7B
p305
sa(dp306
g2
Vhttps://scontent-a.xx.fbcdn.net/hphotos-xap1/v/t1.0-9/s720x720/10363676_10155085657885434_2814155033266310189_n.jpg?oh=9cd9dcb05a76e41cdce38d8386302655&oe=555F385A
p307
sg4
V10363676_10155085657885434_2814155033266310189_n.jpg?oh=9cd9dcb05a76e41cdce38d8386302655&oe=555F385A
p308
sa(dp309
g2
Vhttps://fbcdn-sphotos-f-a.akamaihd.net/hphotos-ak-xpa1/v/t1.0-9/s720x720/10906260_10155085657500434_5377402345568692631_n.jpg?oh=a99eb54c115e9d168b6175570b2d9b8f&oe=554AEB29&__gda__=1432224982_8b63d024230b2d0c1e6387a5bf3d145f
p310
sg4
V10906260_10155085657500434_5377402345568692631_n.jpg?oh=a99eb54c115e9d168b6175570b2d9b8f&oe=554AEB29&__gda__=1432224982_8b63d024230b2d0c1e6387a5bf3d145f
p311
sa(dp312
g2
Vhttps://fbcdn-sphotos-d-a.akamaihd.net/hphotos-ak-xap1/v/t1.0-9/s720x720/10905994_10155085657195434_8516123386705566065_n.jpg?oh=49f8652f4806dbbefccf160bad57b0ef&oe=5567EA50&__gda__=1432226795_00943eea32c00b76c157512ff781bfb9
p313
sg4
V10905994_10155085657195434_8516123386705566065_n.jpg?oh=49f8652f4806dbbefccf160bad57b0ef&oe=5567EA50&__gda__=1432226795_00943eea32c00b76c157512ff781bfb9
p314
sa(dp315
g2
Vhttps://fbcdn-sphotos-c-a.akamaihd.net/hphotos-ak-prn1/v/t1.0-9/s720x720/10922557_10155085656755434_239560171430501080_n.jpg?oh=e2ebc94cec7648e2dd9e1bf3f781c543&oe=556117AA&__gda__=1431403495_e3e4831961fcf8322399303b21e15a3b
p316
sg4
V10922557_10155085656755434_239560171430501080_n.jpg?oh=e2ebc94cec7648e2dd9e1bf3f781c543&oe=556117AA&__gda__=1431403495_e3e4831961fcf8322399303b21e15a3b
p317
sa(dp318
g2
Vhttps://scontent-a.xx.fbcdn.net/hphotos-xap1/v/t1.0-9/q85/s720x720/10906129_10155085656400434_5351665549980620235_n.jpg?oh=ca04c12b68f9e3c00dadbe48476ce92c&oe=554C0358
p319
sg4
V10906129_10155085656400434_5351665549980620235_n.jpg?oh=ca04c12b68f9e3c00dadbe48476ce92c&oe=554C0358
p320
sa(dp321
g2
Vhttps://scontent-a.xx.fbcdn.net/hphotos-xpa1/v/t1.0-9/s720x720/11418_10155085656100434_8039665599834300230_n.jpg?oh=a9ce20f648a304d841cc0f491ad8c57d&oe=5593F238
p322
sg4
V11418_10155085656100434_8039665599834300230_n.jpg?oh=a9ce20f648a304d841cc0f491ad8c57d&oe=5593F238
p323
sa(dp324
g2
Vhttps://fbcdn-sphotos-a-a.akamaihd.net/hphotos-ak-xap1/v/t1.0-9/s720x720/10360913_10155085655765434_8811381600730828249_n.jpg?oh=5279e18195ab2e9c9f7ba7a72171981d&oe=55568D92&__gda__=1431157289_13d3a0d9cc38d0b7b77f27be6a84e702
p325
sg4
V10360913_10155085655765434_8811381600730828249_n.jpg?oh=5279e18195ab2e9c9f7ba7a72171981d&oe=55568D92&__gda__=1431157289_13d3a0d9cc38d0b7b77f27be6a84e702
p326
sa(dp327
g2
Vhttps://fbcdn-sphotos-d-a.akamaihd.net/hphotos-ak-xfp1/v/t1.0-9/s720x720/10896839_10155085655330434_9133741918678248205_n.jpg?oh=5ea2ff0f6e4ef99fbf88efb5b86f2a09&oe=559350B1&__gda__=1432886344_7c2f3640495c765d50f7250112848973
p328
sg4
V10896839_10155085655330434_9133741918678248205_n.jpg?oh=5ea2ff0f6e4ef99fbf88efb5b86f2a09&oe=559350B1&__gda__=1432886344_7c2f3640495c765d50f7250112848973
p329
sa(dp330
g2
Vhttps://scontent-b.xx.fbcdn.net/hphotos-xpa1/v/t1.0-9/s720x720/10931144_10155085654870434_5921014266735540848_n.jpg?oh=743ff7ebcb2e46ddca8e676993b74c00&oe=5594C499
p331
sg4
V10931144_10155085654870434_5921014266735540848_n.jpg?oh=743ff7ebcb2e46ddca8e676993b74c00&oe=5594C499
p332
sa(dp333
g2
Vhttps://fbcdn-sphotos-h-a.akamaihd.net/hphotos-ak-xap1/v/t1.0-9/q85/s720x720/10897899_10155085654470434_5343002184190856806_n.jpg?oh=3e6a9e6eda6daf2f9c08e3187dcc5126&oe=55668200&__gda__=1432714699_f55804a87113a8ae2dac533305dba44e
p334
sg4
V wedding daya44e
p335
sa(dp336
g2
Vhttps://fbcdn-sphotos-b-a.akamaihd.net/hphotos-ak-xfp1/v/t1.0-9/q83/s720x720/10858576_10155085654285434_8503467819284538502_n.jpg?oh=243cda8e90321ef2ad5374a9b71fa556&oe=554C4910&__gda__=1432296163_2770d9324dcfbbf033f4c1f6939bba8f
p337
sg4
V10858576_10155085654285434_8503467819284538502_n.jpg?oh=243cda8e90321ef2ad5374a9b71fa556&oe=554C4910&__gda__=1432296163_2770d9324dcfbbf033f4c1f6939bba8f
p338
sa(dp339
g2
Vhttps://fbcdn-sphotos-a-a.akamaihd.net/hphotos-ak-xaf1/v/t1.0-9/s720x720/10616059_10155085653985434_1343468490008191593_n.jpg?oh=3d36c887dca84da0a12d9ce3570e0688&oe=5560BD75&__gda__=1431658368_8528a7769b42587da1b46e1a74ba8c92
p340
sg4
V10616059_10155085653985434_1343468490008191593_n.jpg?oh=3d36c887dca84da0a12d9ce3570e0688&oe=5560BD75&__gda__=1431658368_8528a7769b42587da1b46e1a74ba8c92
p341
sa(dp342
g2
Vhttps://fbcdn-sphotos-h-a.akamaihd.net/hphotos-ak-xpa1/v/t1.0-9/p480x480/10905994_10155085653775434_7032627347388324189_n.jpg?oh=beca54ff7ca3e16565bf12f055a5453d&oe=5556C8A9&__gda__=1431046998_f959013fdce0b49443d400602eec1780
p343
sg4
V10905994_10155085653775434_7032627347388324189_n.jpg?oh=beca54ff7ca3e16565bf12f055a5453d&oe=5556C8A9&__gda__=1431046998_f959013fdce0b49443d400602eec1780
p344
sa(dp345
g2
Vhttps://scontent-b.xx.fbcdn.net/hphotos-xap1/v/t1.0-9/s720x720/10897051_10155085653635434_2438718725858277811_n.jpg?oh=ef14b2aca189b5ea1e83dcbfe6308219&oe=555A81C4
p346
sg4
V10897051_10155085653635434_2438718725858277811_n.jpg?oh=ef14b2aca189b5ea1e83dcbfe6308219&oe=555A81C4
p347
sa(dp348
g2
Vhttps://scontent-b.xx.fbcdn.net/hphotos-xap1/v/t1.0-9/s720x720/10897027_10155085653505434_2802399092241840300_n.jpg?oh=3c10c4b4492aaa72889ebd6c6185f956&oe=5564C9FA
p349
sg4
V10897027_10155085653505434_2802399092241840300_n.jpg?oh=3c10c4b4492aaa72889ebd6c6185f956&oe=5564C9FA
p350
sa(dp351
g2
Vhttps://fbcdn-sphotos-a-a.akamaihd.net/hphotos-ak-xpa1/v/t1.0-9/s720x720/10302167_10155085653355434_9039063736943958253_n.jpg?oh=39a11fa9657572b5950137b00f603057&oe=5595DFBA&__gda__=1431365189_d87b9799af7bfbe4e4fd6c74ed4cdd64
p352
sg4
V10302167_10155085653355434_9039063736943958253_n.jpg?oh=39a11fa9657572b5950137b00f603057&oe=5595DFBA&__gda__=1431365189_d87b9799af7bfbe4e4fd6c74ed4cdd64
p353
sa(dp354
g2
Vhttps://scontent-a.xx.fbcdn.net/hphotos-xpf1/v/t1.0-9/s720x720/1486797_10155085653220434_3661077543630429119_n.jpg?oh=26249f1062cfeea1f5bab29919973f58&oe=55641264
p355
sg4
V1486797_10155085653220434_3661077543630429119_n.jpg?oh=26249f1062cfeea1f5bab29919973f58&oe=55641264
p356
sa(dp357
g2
Vhttps://fbcdn-sphotos-c-a.akamaihd.net/hphotos-ak-xfp1/v/t1.0-9/s720x720/10926365_10155085653065434_6949084558647486213_n.jpg?oh=94fbcb822beb015f2d541c109c07e050&oe=554AE150&__gda__=1432494761_f1930a9edd1e1b8809807d55eced647f
p358
sg4
V10926365_10155085653065434_6949084558647486213_n.jpg?oh=94fbcb822beb015f2d541c109c07e050&oe=554AE150&__gda__=1432494761_f1930a9edd1e1b8809807d55eced647f
p359
sa(dp360
g2
Vhttps://scontent-b.xx.fbcdn.net/hphotos-xap1/v/t1.0-9/s720x720/10676246_10155085652980434_6076529648232166631_n.jpg?oh=3b80b875c3d0f35ea99209cba69b9f03&oe=555AB815
p361
sg4
V10676246_10155085652980434_6076529648232166631_n.jpg?oh=3b80b875c3d0f35ea99209cba69b9f03&oe=555AB815
p362
sa(dp363
g2
Vhttps://fbcdn-sphotos-b-a.akamaihd.net/hphotos-ak-xfp1/v/t1.0-9/s720x720/10405653_10155085626435434_2812083097882802014_n.jpg?oh=a44ef1e5589a0e0602d02f5580f48172&oe=5566B367&__gda__=1432563358_1c631bcad6cd357d04d341a8a98e8e9c
p364
sg4
Vso concerned8e9c
p365
sa(dp366
g2
Vhttps://fbcdn-sphotos-a-a.akamaihd.net/hphotos-ak-xaf1/v/t1.0-9/s720x720/10358131_10155085626360434_5122569183029918714_n.jpg?oh=0bafc6b0b8a55f588aef9457420c770c&oe=555E020C&__gda__=1431343097_13e4fd5c87b8b9ef8b92d301796b672d
p367
sg4
Vprob one of new fav pictures with u672d
p368
sa(dp369
g2
Vhttps://fbcdn-sphotos-g-a.akamaihd.net/hphotos-ak-xpa1/v/t1.0-9/s720x720/10929091_10155085626165434_3579158891091425690_n.jpg?oh=f41097fbe7c430462d1c31f4a63e3f89&oe=55939BC2&__gda__=1431793981_bc6bb5a3e6135870ab223593b898b10b
p370
sg4
Vaestheticb10b
p371
sa(dp372
g2
Vhttps://fbcdn-sphotos-e-a.akamaihd.net/hphotos-ak-xpa1/v/t1.0-9/s720x720/10917031_10155085626020434_278736703319116884_n.jpg?oh=d6bc2d5f39d60bd6ed7c90998dd9c92b&oe=556422B8&__gda__=1431839869_4104b0473949be7cc0a5f46854dfdade
p373
sg4
Vyoure a jokedade
p374
sa(dp375
g2
Vhttps://scontent-a.xx.fbcdn.net/hphotos-xpa1/v/t1.0-9/s720x720/10897085_10155085625910434_283831860629640083_n.jpg?oh=92a24c81b3f947c6f7aeaadd3dd99b60&oe=5595103D
p376
sg4
V10897085_10155085625910434_283831860629640083_n.jpg?oh=92a24c81b3f947c6f7aeaadd3dd99b60&oe=5595103D
p377
sa(dp378
g2
Vhttps://scontent-b.xx.fbcdn.net/hphotos-prn2/v/t1.0-9/s720x720/10922719_10155085625700434_2670697568923751660_n.jpg?oh=d1d3620c7d5ca27551e161c83e1d1d33&oe=55676933
p379
sg4
V10922719_10155085625700434_2670697568923751660_n.jpg?oh=d1d3620c7d5ca27551e161c83e1d1d33&oe=55676933
p380
sa(dp381
g2
Vhttps://fbcdn-sphotos-h-a.akamaihd.net/hphotos-ak-xap1/v/t1.0-9/q82/s720x720/1621921_10155085625575434_1499631599326862669_n.jpg?oh=0872d36322cb3eddc02631ec7edede27&oe=5564AB3C&__gda__=1432755241_27265c772fbc08036d063aecaa37c181
p382
sg4
V1621921_10155085625575434_1499631599326862669_n.jpg?oh=0872d36322cb3eddc02631ec7edede27&oe=5564AB3C&__gda__=1432755241_27265c772fbc08036d063aecaa37c181
p383
sa(dp384
g2
Vhttps://fbcdn-sphotos-f-a.akamaihd.net/hphotos-ak-xpa1/v/t1.0-9/q81/s720x720/10898287_10155085625415434_8456438392273947358_n.jpg?oh=d1861e92449e7aea5ef1a4cf09fdf910&oe=5562ED07&__gda__=1431911553_fc8f20ad7d0168dbe2c9e15210332105
p385
sg4
V10898287_10155085625415434_8456438392273947358_n.jpg?oh=d1861e92449e7aea5ef1a4cf09fdf910&oe=5562ED07&__gda__=1431911553_fc8f20ad7d0168dbe2c9e15210332105
p386
sa(dp387
g2
Vhttps://scontent-b.xx.fbcdn.net/hphotos-xap1/v/t1.0-9/s720x720/10934084_10155085625265434_5159664105803183506_n.jpg?oh=e21ca936fb721290ad6ac3dd33b36376&oe=5559DE83
p388
sg4
V10934084_10155085625265434_5159664105803183506_n.jpg?oh=e21ca936fb721290ad6ac3dd33b36376&oe=5559DE83
p389
sa(dp390
g2
Vhttps://scontent-b.xx.fbcdn.net/hphotos-xap1/v/t1.0-9/s720x720/10407576_10155085625100434_731499021400342418_n.jpg?oh=4f1af52a0f860edf1e808eb2a90a4b7e&oe=5558894B
p391
sg4
V10407576_10155085625100434_731499021400342418_n.jpg?oh=4f1af52a0f860edf1e808eb2a90a4b7e&oe=5558894B
p392
sa(dp393
g2
Vhttps://fbcdn-sphotos-f-a.akamaihd.net/hphotos-ak-xfp1/v/t1.0-9/s720x720/10922467_10155085624925434_7194772086037986223_n.jpg?oh=adeb1113fbcc01000d2f96c8ce627971&oe=555D1F78&__gda__=1430827905_065fc464ae7daabcb523c4561f273759
p394
sg4
V10922467_10155085624925434_7194772086037986223_n.jpg?oh=adeb1113fbcc01000d2f96c8ce627971&oe=555D1F78&__gda__=1430827905_065fc464ae7daabcb523c4561f273759
p395
sa(dp396
g2
Vhttps://scontent-a.xx.fbcdn.net/hphotos-xpa1/v/t1.0-9/s720x720/10429283_10155085624770434_2502235331514175510_n.jpg?oh=e62cd4f71240bac660d35684f28096ad&oe=554C5AC8
p397
sg4
V10429283_10155085624770434_2502235331514175510_n.jpg?oh=e62cd4f71240bac660d35684f28096ad&oe=554C5AC8
p398
sa(dp399
g2
Vhttps://scontent-a.xx.fbcdn.net/hphotos-xpa1/v/t1.0-9/s720x720/63764_10155085624455434_1266146513735553387_n.jpg?oh=c886f058bc96c9fd4025722749dfd1b8&oe=5564553D
p400
sg4
Vpork floss553D
p401
sa(dp402
g2
Vhttps://fbcdn-sphotos-g-a.akamaihd.net/hphotos-ak-xfp1/v/t1.0-9/s720x720/10270753_10155085624375434_5410243367430311214_n.jpg?oh=43720b33fa5b168f142e79cc42e5699a&oe=5594A027&__gda__=1431236574_585ddedd3995d6396b6611f9351725ea
p403
sg4
V10270753_10155085624375434_5410243367430311214_n.jpg?oh=43720b33fa5b168f142e79cc42e5699a&oe=5594A027&__gda__=1431236574_585ddedd3995d6396b6611f9351725ea
p404
sa(dp405
g2
Vhttps://scontent-b.xx.fbcdn.net/hphotos-xpa1/v/t1.0-9/s720x720/10931476_10155085624200434_5714420976880467063_n.jpg?oh=8bbb964dcc54545040d4c0d2134d51e3&oe=55659237
p406
sg4
V10931476_10155085624200434_5714420976880467063_n.jpg?oh=8bbb964dcc54545040d4c0d2134d51e3&oe=55659237
p407
sa(dp408
g2
Vhttps://scontent-b.xx.fbcdn.net/hphotos-xpa1/v/t1.0-9/s720x720/10931554_10155085624005434_2158267583604396590_n.jpg?oh=93f66270a489b1f7b7058cdee3505c45&oe=55520E3A
p409
sg4
V10931554_10155085624005434_2158267583604396590_n.jpg?oh=93f66270a489b1f7b7058cdee3505c45&oe=55520E3A
p410
sa(dp411
g2
Vhttps://scontent-b.xx.fbcdn.net/hphotos-xap1/v/t1.0-9/s720x720/10934030_10155085623915434_4642418147387963018_n.jpg?oh=5b5fd4bcef29ab38f3488e8718fefbf1&oe=5566ABCB
p412
sg4
Vhelen r u ok 99550ABCB
p413
sa(dp414
g2
Vhttps://fbcdn-sphotos-h-a.akamaihd.net/hphotos-ak-xap1/v/t1.0-9/s720x720/10920909_10155085623800434_8348534499720512036_n.jpg?oh=d2cd9536ed8a8b22234b51da4f1f716f&oe=5592B149&__gda__=1431804402_3f06b9f5a9ba47153d01962219a94364
p415
sg4
V10920909_10155085623800434_8348534499720512036_n.jpg?oh=d2cd9536ed8a8b22234b51da4f1f716f&oe=5592B149&__gda__=1431804402_3f06b9f5a9ba47153d01962219a94364
p416
sa(dp417
g2
Vhttps://fbcdn-sphotos-c-a.akamaihd.net/hphotos-ak-xaf1/v/t1.0-9/s720x720/10857792_10155085623610434_606913569879985041_n.jpg?oh=37cb70d5d588074d7a0905183a077221&oe=55675155&__gda__=1432958297_087c7559c194b743ab342f5a6a712ea8
p418
sg4
V10857792_10155085623610434_606913569879985041_n.jpg?oh=37cb70d5d588074d7a0905183a077221&oe=55675155&__gda__=1432958297_087c7559c194b743ab342f5a6a712ea8
p419
sa(dp420
g2
Vhttps://fbcdn-sphotos-e-a.akamaihd.net/hphotos-ak-xpa1/v/t1.0-9/s720x720/10896945_10155085623505434_7863090955986972068_n.jpg?oh=a3608f58c5b8031444f10ae38b01e70a&oe=5567B7DC&__gda__=1431029283_37642b0d86c9a0f39059c761b48bcca2
p421
sg4
Vsquadcca2
p422
sa(dp423
g2
Vhttps://fbcdn-sphotos-f-a.akamaihd.net/hphotos-ak-xpa1/v/t1.0-9/s720x720/10438283_10155085623435434_3347656823553495761_n.jpg?oh=33aae5956309d1b564f5c31fd7e8e849&oe=555010F7&__gda__=1432535816_b968ce84c3ab0cb28cb17335f42d65bd
p424
sg4
VbYE65bd
p425
sa(dp426
g2
Vhttps://fbcdn-sphotos-d-a.akamaihd.net/hphotos-ak-xap1/v/t1.0-9/s720x720/10933714_10155085623280434_6336331496689954865_n.jpg?oh=be9f1ceab7d2e2983b627dba894ab233&oe=5549C98E&__gda__=1431413813_753c3a96e8644ff0695735ff01fd49e2
p427
sg4
Vcan u tell i love pocky49e2
p428
sa(dp429
g2
Vhttps://fbcdn-sphotos-b-a.akamaihd.net/hphotos-ak-xap1/v/t1.0-9/s720x720/10933947_10155085623185434_8567481926678816469_n.jpg?oh=3cc8b1a805b59af3ee1e0d830f2643b9&oe=5551A273&__gda__=1431222728_082fb90349a2dea7cf416880f9a09a66
p430
sg4
Vbitterly cold9a66
p431
sa(dp432
g2
Vhttps://fbcdn-sphotos-h-a.akamaihd.net/hphotos-ak-xpa1/v/t1.0-9/s720x720/10689525_10155085623095434_6585803007690762497_n.jpg?oh=72510bcc580a3fb3220bf93ec5548414&oe=556084C1&__gda__=1435702590_a0d5730d988aa738dbbfd9d0de5af7d2
p433
sg4
Vtybgf7d2
p434
sa(dp435
g2
Vhttps://scontent-a.xx.fbcdn.net/hphotos-prn1/v/t1.0-9/s720x720/10923389_10155085623030434_5141430967207806486_n.jpg?oh=b4ff4fd573f03c78d93bf7dc59278ed2&oe=5559AF64
p436
sg4
Vhmare you sureAF64
p437
sa(dp438
g2
Vhttps://fbcdn-sphotos-a-a.akamaihd.net/hphotos-ak-xap1/v/t1.0-9/s720x720/10917108_10155085622850434_7619314898519225406_n.jpg?oh=474a882240e51f4ad5034f6cc2315218&oe=55564E22&__gda__=1431072665_309540f54750cddbaa8433410043223e
p439
sg4
V10917108_10155085622850434_7619314898519225406_n.jpg?oh=474a882240e51f4ad5034f6cc2315218&oe=55564E22&__gda__=1431072665_309540f54750cddbaa8433410043223e
p440
sa(dp441
g2
Vhttps://fbcdn-sphotos-g-a.akamaihd.net/hphotos-ak-xpf1/v/t1.0-9/s720x720/10898028_10155085622780434_3763727294673555161_n.jpg?oh=a1e29bf252dc92f1a3884ec80d37c1f1&oe=55514A29&__gda__=1431121471_50312aed4388507208c92a426a383e4d
p442
sg4
Vplummeting to my death3e4d
p443
sa(dp444
g2
Vhttps://fbcdn-sphotos-f-a.akamaihd.net/hphotos-ak-xpf1/v/t1.0-9/s720x720/10934082_10155085622675434_679191677009823607_n.jpg?oh=e3a773d20d368ebd83aecdb9162e3f7e&oe=5559F24A&__gda__=1431827425_a46b1d77d4189e6888776661493db585
p445
sg4
V10934082_10155085622675434_679191677009823607_n.jpg?oh=e3a773d20d368ebd83aecdb9162e3f7e&oe=5559F24A&__gda__=1431827425_a46b1d77d4189e6888776661493db585
p446
sa(dp447
g2
Vhttps://scontent-b.xx.fbcdn.net/hphotos-xfp1/v/t1.0-9/p720x720/10885190_10155020335775434_1958121323147993059_n.jpg?oh=7e4bfc53adec1c5d6edcd15a85069c3d&oe=5566250E
p448
sg4
V)250E
p449
sa(dp450
g2
Vhttps://scontent-a.xx.fbcdn.net/hphotos-xaf1/v/t1.0-9/s720x720/10559675_10155020317540434_7937084318699555209_n.jpg?oh=156eb4818f1bb3b125254882d65b713c&oe=556A6279
p451
sg4
Vwao kawaii6279
p452
sa(dp453
g2
Vhttps://scontent-a.xx.fbcdn.net/hphotos-xap1/v/t1.0-9/s720x720/10898298_10155020317370434_1260433966630462068_n.jpg?oh=443150968d48a3f343bc2b30e93c282f&oe=55694F7D
p454
sg4
Vsquid squad4F7D
p455
sa(dp456
g2
Vhttps://fbcdn-sphotos-a-a.akamaihd.net/hphotos-ak-xap1/v/t1.0-9/s720x720/10372518_10155020317215434_94976615361260384_n.jpg?oh=a0e8a3ec7c6dacfae60c4c872d039f32&oe=5552B9D4&__gda__=1431107466_c92dc24dc37017e8cb1cb7195458be18
p457
sg4
Vsquadbe18
p458
sa(dp459
g2
Vhttps://scontent-b.xx.fbcdn.net/hphotos-xpa1/v/t1.0-9/s720x720/10420400_10155020316960434_3885785266401404762_n.jpg?oh=bb5a6ef2b3bcfa6ef60b78539d64fa75&oe=555D8937
p460
sg4
Vsquad8937
p461
sa(dp462
g2
Vhttps://fbcdn-sphotos-b-a.akamaihd.net/hphotos-ak-xpf1/v/t1.0-9/s720x720/10429456_10155020296375434_3271804300302856674_n.jpg?oh=b4f2c07e121c76842ee87c9dc468fc30&oe=55587442&__gda__=1435843924_b3eaa6f46c484d0031bd9e0b297789a4
p463
sg4
V10429456_10155020296375434_3271804300302856674_n.jpg?oh=b4f2c07e121c76842ee87c9dc468fc30&oe=55587442&__gda__=1435843924_b3eaa6f46c484d0031bd9e0b297789a4
p464
sa(dp465
g2
Vhttps://fbcdn-sphotos-e-a.akamaihd.net/hphotos-ak-xfa1/v/t1.0-9/s720x720/10434052_10155020296055434_4768796118224281740_n.jpg?oh=01052b7aafdbb9c57ea6e5223fddffee&oe=555F2933&__gda__=1430801773_76cb033297c480aa5f7ffae14d68b6ca
p466
sg4
V10434052_10155020296055434_4768796118224281740_n.jpg?oh=01052b7aafdbb9c57ea6e5223fddffee&oe=555F2933&__gda__=1430801773_76cb033297c480aa5f7ffae14d68b6ca
p467
sa(dp468
g2
Vhttps://scontent-a.xx.fbcdn.net/hphotos-xfp1/v/t1.0-9/s720x720/10649593_10155020295920434_2557435795469467656_n.jpg?oh=f233957eb909b0291e26fc11438eecdd&oe=5560444A
p469
sg4
V10649593_10155020295920434_2557435795469467656_n.jpg?oh=f233957eb909b0291e26fc11438eecdd&oe=5560444A
p470
sa(dp471
g2
Vhttps://scontent-b.xx.fbcdn.net/hphotos-xap1/v/t1.0-9/s720x720/1489154_10155020295805434_1354490734463100375_n.jpg?oh=591372f69281807e5211ab2e48f35916&oe=5561F18B
p472
sg4
V1489154_10155020295805434_1354490734463100375_n.jpg?oh=591372f69281807e5211ab2e48f35916&oe=5561F18B
p473
sa(dp474
g2
Vhttps://fbcdn-sphotos-f-a.akamaihd.net/hphotos-ak-xpa1/v/t1.0-9/s720x720/10407107_10154989569415434_6564854878555150176_n.jpg?oh=83dd213f406e1854f76bdea5f2f093a2&oe=554A33E0&__gda__=1431647519_911121999866b1d8db2f4b290af7b6ed
p475
sg4
V10407107_10154989569415434_6564854878555150176_n.jpg?oh=83dd213f406e1854f76bdea5f2f093a2&oe=554A33E0&__gda__=1431647519_911121999866b1d8db2f4b290af7b6ed
p476
sa(dp477
g2
Vhttps://fbcdn-sphotos-h-a.akamaihd.net/hphotos-ak-xap1/v/t1.0-9/s720x720/10675655_10154989569225434_6721173157762057803_n.jpg?oh=d81cc4fb2b51333eb58c1cf30907100d&oe=554F34F3&__gda__=1430831944_9a17fe116348b33b97f3ac4e4db041e6
p478
sg4
V10675655_10154989569225434_6721173157762057803_n.jpg?oh=d81cc4fb2b51333eb58c1cf30907100d&oe=554F34F3&__gda__=1430831944_9a17fe116348b33b97f3ac4e4db041e6
p479
sa(dp480
g2
Vhttps://scontent-b.xx.fbcdn.net/hphotos-xap1/v/t1.0-9/s720x720/10885158_10154989569110434_255480894478300220_n.jpg?oh=c155d058f4640e47e103afdc0f0a65ae&oe=555B6D39
p481
sg4
V10885158_10154989569110434_255480894478300220_n.jpg?oh=c155d058f4640e47e103afdc0f0a65ae&oe=555B6D39
p482
sa(dp483
g2
Vhttps://fbcdn-sphotos-c-a.akamaihd.net/hphotos-ak-xap1/v/t1.0-9/s720x720/10891871_10154989568925434_1602187856205765739_n.jpg?oh=2f15fc2311210bb1457683ca540859a4&oe=555EC294&__gda__=1431804207_dcee0e07794886496b5ba573ab9e2fae
p484
sg4
V10891871_10154989568925434_1602187856205765739_n.jpg?oh=2f15fc2311210bb1457683ca540859a4&oe=555EC294&__gda__=1431804207_dcee0e07794886496b5ba573ab9e2fae
p485
sa(dp486
g2
Vhttps://scontent-a.xx.fbcdn.net/hphotos-xfa1/v/t1.0-9/p480x480/1526590_10154989568790434_7516245674210300616_n.jpg?oh=f60de74dddc7b80506ca59d2cd078a95&oe=555C9C00
p487
sg4
V1526590_10154989568790434_7516245674210300616_n.jpg?oh=f60de74dddc7b80506ca59d2cd078a95&oe=555C9C00
p488
sa(dp489
g2
Vhttps://fbcdn-sphotos-g-a.akamaihd.net/hphotos-ak-xap1/v/t1.0-9/s720x720/10458552_10154989568645434_5158447038003397168_n.jpg?oh=fac5231630341bb4fd44e58e4f1b3270&oe=554C7547&__gda__=1432285692_5d7bf7d3cb457cfb2457ecad10c1a762
p490
sg4
V10458552_10154989568645434_5158447038003397168_n.jpg?oh=fac5231630341bb4fd44e58e4f1b3270&oe=554C7547&__gda__=1432285692_5d7bf7d3cb457cfb2457ecad10c1a762
p491
sa(dp492
g2
Vhttps://scontent-a.xx.fbcdn.net/hphotos-xfp1/v/t1.0-9/s720x720/10305509_10154989568490434_7252265693703783869_n.jpg?oh=765f85ee92fd4a2180d1a6f5d2291426&oe=55618810
p493
sg4
V10305509_10154989568490434_7252265693703783869_n.jpg?oh=765f85ee92fd4a2180d1a6f5d2291426&oe=55618810
p494
sa(dp495
g2
Vhttps://fbcdn-sphotos-h-a.akamaihd.net/hphotos-ak-xfp1/v/t1.0-9/s720x720/1526584_10154989568285434_1903684234203443233_n.jpg?oh=f395aec181a4604c0eb1b7d94699a397&oe=5564CEB9&__gda__=1431264616_ff6ecdf979e320d6836cd4460b7b1031
p496
sg4
V1526584_10154989568285434_1903684234203443233_n.jpg?oh=f395aec181a4604c0eb1b7d94699a397&oe=5564CEB9&__gda__=1431264616_ff6ecdf979e320d6836cd4460b7b1031
p497
sa(dp498
g2
Vhttps://scontent-b.xx.fbcdn.net/hphotos-xap1/v/t1.0-9/s720x720/10676269_10154989568125434_6455563487020640469_n.jpg?oh=39fb4904115f001d0b1bf0c4ab1ef943&oe=554B0EAF
p499
sg4
V10676269_10154989568125434_6455563487020640469_n.jpg?oh=39fb4904115f001d0b1bf0c4ab1ef943&oe=554B0EAF
p500
sa(dp501
g2
Vhttps://scontent-a.xx.fbcdn.net/hphotos-xap1/v/t1.0-9/s720x720/10881588_10154989567935434_5238195684309552271_n.jpg?oh=6a171e4493bcd5aa09c1e4d8dc505510&oe=5566B475
p502
sg4
V10881588_10154989567935434_5238195684309552271_n.jpg?oh=6a171e4493bcd5aa09c1e4d8dc505510&oe=5566B475
p503
sa(dp504
g2
Vhttps://scontent-a.xx.fbcdn.net/hphotos-xaf1/v/t1.0-9/s720x720/10882170_10154989567605434_8128959028746319879_n.jpg?oh=91bf76172112dacca025f9442768342d&oe=5557A802
p505
sg4
V10882170_10154989567605434_8128959028746319879_n.jpg?oh=91bf76172112dacca025f9442768342d&oe=5557A802
p506
sa(dp507
g2
Vhttps://fbcdn-sphotos-e-a.akamaihd.net/hphotos-ak-xfa1/v/t1.0-9/s720x720/10891554_10154989567370434_8987134225979722435_n.jpg?oh=c202d7460c8709e6db8015e25fedc908&oe=55523A15&__gda__=1431217995_2193b5ebd8ae2c449e2c79b40b391eb6
p508
sg4
V10891554_10154989567370434_8987134225979722435_n.jpg?oh=c202d7460c8709e6db8015e25fedc908&oe=55523A15&__gda__=1431217995_2193b5ebd8ae2c449e2c79b40b391eb6
p509
sa(dp510
g2
Vhttps://scontent-a.xx.fbcdn.net/hphotos-xfp1/v/t1.0-9/s720x720/1897904_10154989567240434_1140771518234334382_n.jpg?oh=851d4b3eb8c9c29135e0775cc6b7b8ec&oe=55619D22
p511
sg4
V1897904_10154989567240434_1140771518234334382_n.jpg?oh=851d4b3eb8c9c29135e0775cc6b7b8ec&oe=55619D22
p512
sa(dp513
g2
Vhttps://fbcdn-sphotos-b-a.akamaihd.net/hphotos-ak-xfp1/v/t1.0-9/s720x720/10805809_10154986005210434_2043706732875138395_n.jpg?oh=0947e4905346c924ca7adafdbfa971e8&oe=559571D6&__gda__=1431811887_266ec3744b984a2d9e26157cfee55379
p514
sg4
Vuhhhhh5379
p515
sa(dp516
g2
Vhttps://fbcdn-sphotos-f-a.akamaihd.net/hphotos-ak-xap1/v/t1.0-9/s720x720/10676228_10154985964035434_7079160097210621740_n.jpg?oh=9bdd3c276f08ec9513984f6e651e06ef&oe=5559072D&__gda__=1430921366_f0316ff08759a555880e8e7658051304
p517
sg4
V10676228_10154985964035434_7079160097210621740_n.jpg?oh=9bdd3c276f08ec9513984f6e651e06ef&oe=5559072D&__gda__=1430921366_f0316ff08759a555880e8e7658051304
p518
sa(dp519
g2
Vhttps://scontent-a.xx.fbcdn.net/hphotos-xfa1/v/t1.0-9/s720x720/10881780_10154985963840434_7139961781132622853_n.jpg?oh=e05c526738012375efd50eedd7a95dfa&oe=5566C6D8
p520
sg4
V10881780_10154985963840434_7139961781132622853_n.jpg?oh=e05c526738012375efd50eedd7a95dfa&oe=5566C6D8
p521
sa(dp522
g2
Vhttps://scontent-a.xx.fbcdn.net/hphotos-prn2/v/t1.0-9/s720x720/10891711_10154985963630434_8881950496624840577_n.jpg?oh=fb732e2465a2eed74f5713f55f33b004&oe=554F73E1
p523
sg4
V10891711_10154985963630434_8881950496624840577_n.jpg?oh=fb732e2465a2eed74f5713f55f33b004&oe=554F73E1
p524
sa(dp525
g2
Vhttps://scontent-b.xx.fbcdn.net/hphotos-xpa1/v/t1.0-9/s720x720/10646962_10154985963205434_1679977344871668973_n.jpg?oh=e651c1a5a41907cccaea67d63e74e072&oe=554E861E
p526
sg4
V10646962_10154985963205434_1679977344871668973_n.jpg?oh=e651c1a5a41907cccaea67d63e74e072&oe=554E861E
p527
sa(dp528
g2
Vhttps://scontent-b.xx.fbcdn.net/hphotos-xap1/v/t1.0-9/s720x720/1468554_10154985963105434_4274742079757976032_n.jpg?oh=128aeaf14fe4ab1a951aac547c12af0d&oe=554CCED8
p529
sg4
V1468554_10154985963105434_4274742079757976032_n.jpg?oh=128aeaf14fe4ab1a951aac547c12af0d&oe=554CCED8
p530
sa(dp531
g2
Vhttps://fbcdn-sphotos-f-a.akamaihd.net/hphotos-ak-xpf1/v/t1.0-9/s720x720/10882183_10154985962980434_8699050355911878320_n.jpg?oh=984df686901555521c96944118f77501&oe=554A8BC5&__gda__=1432941011_d6815306fd61f270c6b4fa35fb6d5d75
p532
sg4
V10882183_10154985962980434_8699050355911878320_n.jpg?oh=984df686901555521c96944118f77501&oe=554A8BC5&__gda__=1432941011_d6815306fd61f270c6b4fa35fb6d5d75
p533
sa(dp534
g2
Vhttps://fbcdn-sphotos-d-a.akamaihd.net/hphotos-ak-xap1/v/t1.0-9/s720x720/10888825_10154985962800434_4663850099945328995_n.jpg?oh=a451e51417303dfbeecaf169d4d26ec7&oe=55531336&__gda__=1432976781_866750c0aab8cb1e2421e6ac39bd5a3e
p535
sg4
V10888825_10154985962800434_4663850099945328995_n.jpg?oh=a451e51417303dfbeecaf169d4d26ec7&oe=55531336&__gda__=1432976781_866750c0aab8cb1e2421e6ac39bd5a3e
p536
sa(dp537
g2
Vhttps://fbcdn-sphotos-a-a.akamaihd.net/hphotos-ak-xfa1/v/t1.0-9/s720x720/10370438_10154983162000434_8443007849994373058_n.jpg?oh=b145b768872d45b17b2e6f264c90a4b9&oe=55668B5E&__gda__=1432155648_871c67e915481eccc3676a617d50a08f
p538
sg4
Vsamea08f
p539
sa(dp540
g2
Vhttps://fbcdn-sphotos-g-a.akamaihd.net/hphotos-ak-xap1/v/t1.0-9/s720x720/10868243_10154983161875434_1014413721886785428_n.jpg?oh=1290e6418241b3d0a2e5b8bb2cc3021d&oe=555D3694&__gda__=1430881327_eda6ebc2390596afc476089e6a66127c
p541
sg4
V10868243_10154983161875434_1014413721886785428_n.jpg?oh=1290e6418241b3d0a2e5b8bb2cc3021d&oe=555D3694&__gda__=1430881327_eda6ebc2390596afc476089e6a66127c
p542
sa(dp543
g2
Vhttps://fbcdn-sphotos-e-a.akamaihd.net/hphotos-ak-xaf1/v/t1.0-9/s720x720/10888444_10154983161750434_292737059998234521_n.jpg?oh=5c06a22b861246165c41f11952ab1d4d&oe=55937072&__gda__=1432438910_c2a5d4a2f2624f95cfbd57c606a42a92
p544
sg4
Vbless2a92
p545
sa(dp546
g2
Vhttps://fbcdn-sphotos-c-a.akamaihd.net/hphotos-ak-xpf1/v/t1.0-9/s720x720/8986_10154983161670434_8090791226805661708_n.jpg?oh=dc42ec3d205b919dc4ac8a122fedf855&oe=555CB13D&__gda__=1432745573_38a4ce8b3bc9260622286a8e8007b35e
p547
sg4
V8986_10154983161670434_8090791226805661708_n.jpg?oh=dc42ec3d205b919dc4ac8a122fedf855&oe=555CB13D&__gda__=1432745573_38a4ce8b3bc9260622286a8e8007b35e
p548
sa(dp549
g2
Vhttps://scontent-b.xx.fbcdn.net/hphotos-xpf1/v/t1.0-9/s720x720/1618579_10154983161525434_8486095949589595191_n.jpg?oh=86334d4ddf52c0bfdb6c9537f5b680ae&oe=55587D02
p550
sg4
V1618579_10154983161525434_8486095949589595191_n.jpg?oh=86334d4ddf52c0bfdb6c9537f5b680ae&oe=55587D02
p551
sa(dp552
g2
Vhttps://fbcdn-sphotos-h-a.akamaihd.net/hphotos-ak-xpa1/v/t1.0-9/s720x720/10888672_10154983161405434_8313761758379322750_n.jpg?oh=0e86fbc5971ba503604044f0d368ad92&oe=5560C8C6&__gda__=1432959033_ac05a7c7a1292fc77a7f64a39d292012
p553
sg4
Vr u ok2012
p554
sa(dp555
g2
Vhttps://scontent-a.xx.fbcdn.net/hphotos-xfa1/v/t1.0-9/s720x720/10891771_10154983161310434_7809661540302822908_n.jpg?oh=9f26ec80dc92fbb214b0c5462babdd20&oe=55946204
p556
sg4
V10891771_10154983161310434_7809661540302822908_n.jpg?oh=9f26ec80dc92fbb214b0c5462babdd20&oe=55946204
p557
sa(dp558
g2
Vhttps://fbcdn-sphotos-a-a.akamaihd.net/hphotos-ak-xfp1/v/t1.0-9/q88/s720x720/10888850_10154983161235434_8189166168540222649_n.jpg?oh=c772397e99733d3a53d5bbeeadbd53b4&oe=55631D96&__gda__=1432191333_0534ca4d8c7b914ae1e4500b535504d0
p559
sg4
V10888850_10154983161235434_8189166168540222649_n.jpg?oh=c772397e99733d3a53d5bbeeadbd53b4&oe=55631D96&__gda__=1432191333_0534ca4d8c7b914ae1e4500b535504d0
p560
sa(dp561
g2
Vhttps://scontent-a.xx.fbcdn.net/hphotos-xfp1/v/t1.0-9/s720x720/10891632_10154983161145434_7743974683128109526_n.jpg?oh=1f18915b34e28822492e5e3072fba027&oe=55572511
p562
sg4
V10891632_10154983161145434_7743974683128109526_n.jpg?oh=1f18915b34e28822492e5e3072fba027&oe=55572511
p563
sa(dp564
g2
Vhttps://fbcdn-sphotos-e-a.akamaihd.net/hphotos-ak-xpa1/v/t1.0-9/s720x720/10330395_10154983161050434_3310596450566401117_n.jpg?oh=d10be22b14d5ec418686f21c022647dc&oe=556927BD&__gda__=1431799106_c4cdcb346c4a6977ee0e01db9b4383a8
p565
sg4
Vimportant83a8
p566
sa(dp567
g2
Vhttps://fbcdn-sphotos-h-a.akamaihd.net/hphotos-ak-xpa1/v/t1.0-9/s720x720/10885531_10154983160890434_1369731166601350617_n.jpg?oh=8622624d0a496be3df07bb3197925255&oe=554EBE8D&__gda__=1432465010_3897969fc86f6577a242c681682b17ca
p568
sg4
V10885531_10154983160890434_1369731166601350617_n.jpg?oh=8622624d0a496be3df07bb3197925255&oe=554EBE8D&__gda__=1432465010_3897969fc86f6577a242c681682b17ca
p569
sa(dp570
g2
Vhttps://scontent-b.xx.fbcdn.net/hphotos-xpf1/v/t1.0-9/q81/s720x720/10885015_10154970193300434_4574674501286790375_n.jpg?oh=d7c575624ea8613c0728a6d7044d798a&oe=55534878
p571
sg4
V10885015_10154970193300434_4574674501286790375_n.jpg?oh=d7c575624ea8613c0728a6d7044d798a&oe=55534878
p572
sa(dp573
g2
Vhttps://scontent-b.xx.fbcdn.net/hphotos-xfp1/v/t1.0-9/s720x720/10410177_10154970192510434_196773293003798328_n.jpg?oh=2ca7dc68e9cf92df6c01a49a5f222f6d&oe=55665A58
p574
sg4
V10410177_10154970192510434_196773293003798328_n.jpg?oh=2ca7dc68e9cf92df6c01a49a5f222f6d&oe=55665A58
p575
sa(dp576
g2
Vhttps://fbcdn-sphotos-f-a.akamaihd.net/hphotos-ak-xap1/v/t1.0-9/s720x720/10881486_10154970192095434_6969136185790430964_n.jpg?oh=1357ed46cd19618c9b6c45a2326392ba&oe=555A96A3&__gda__=1432538392_12c34168943c3a1ee15ede371cc06075
p577
sg4
V10881486_10154970192095434_6969136185790430964_n.jpg?oh=1357ed46cd19618c9b6c45a2326392ba&oe=555A96A3&__gda__=1432538392_12c34168943c3a1ee15ede371cc06075
p578
sa(dp579
g2
Vhttps://scontent-a.xx.fbcdn.net/hphotos-xpf1/v/t1.0-9/s720x720/10351685_10154970191935434_687435633463234856_n.jpg?oh=d9aacae2a496dab2dafc87f4f3aea4fb&oe=55958D5E
p580
sg4
V10351685_10154970191935434_687435633463234856_n.jpg?oh=d9aacae2a496dab2dafc87f4f3aea4fb&oe=55958D5E
p581
sa(dp582
g2
Vhttps://fbcdn-sphotos-g-a.akamaihd.net/hphotos-ak-xfa1/v/t1.0-9/s720x720/1798100_10154970191820434_7413325390759348644_n.jpg?oh=ed9c69dbbd82ab69487016adddd73580&oe=554D0E6C&__gda__=1431606503_95e7102effda495cea9bf65ea90385e0
p583
sg4
V1798100_10154970191820434_7413325390759348644_n.jpg?oh=ed9c69dbbd82ab69487016adddd73580&oe=554D0E6C&__gda__=1431606503_95e7102effda495cea9bf65ea90385e0
p584
sa(dp585
g2
Vhttps://scontent-b.xx.fbcdn.net/hphotos-xfp1/v/t1.0-9/s720x720/10882257_10154959226950434_2123514453512126377_n.jpg?oh=f639fb7b3bcfe25aaf0a9f53488da10b&oe=556765D7
p586
sg4
V10882257_10154959226950434_2123514453512126377_n.jpg?oh=f639fb7b3bcfe25aaf0a9f53488da10b&oe=556765D7
p587
sa(dp588
g2
Vhttps://scontent-b.xx.fbcdn.net/hphotos-xap1/v/t1.0-9/s720x720/10881675_10154959226905434_485026780951756834_n.jpg?oh=74b87535ffb425a855f12d35856d8ea4&oe=555B8ECB
p589
sg4
Vwow edgy8ECB
p590
sa(dp591
g2
Vhttps://fbcdn-sphotos-d-a.akamaihd.net/hphotos-ak-xfp1/v/t1.0-9/s720x720/1504652_10154959226825434_1139007681482865388_n.jpg?oh=de47b0b1b7bbfaebac9fac4a009745d4&oe=555E133F&__gda__=1430809070_acdc13c2c3aa60f69dd2e888b60a0fc9
p592
sg4
V1504652_10154959226825434_1139007681482865388_n.jpg?oh=de47b0b1b7bbfaebac9fac4a009745d4&oe=555E133F&__gda__=1430809070_acdc13c2c3aa60f69dd2e888b60a0fc9
p593
sa(dp594
g2
Vhttps://scontent-b.xx.fbcdn.net/hphotos-xfp1/v/t1.0-9/s720x720/10881550_10154959226780434_2936050955273208721_n.jpg?oh=0658eb8187b23fec0a1ffa182951ba8d&oe=5557441B
p595
sg4
V10881550_10154959226780434_2936050955273208721_n.jpg?oh=0658eb8187b23fec0a1ffa182951ba8d&oe=5557441B
p596
sa(dp597
g2
Vhttps://fbcdn-sphotos-g-a.akamaihd.net/hphotos-ak-xfp1/v/t1.0-9/s720x720/10559891_10154959226740434_2882783435625717190_n.jpg?oh=ab7f29e238f6a914e36017bb45f16301&oe=55618928&__gda__=1431150033_096714feaf963f62da6916b7f2853723
p598
sg4
V10559891_10154959226740434_2882783435625717190_n.jpg?oh=ab7f29e238f6a914e36017bb45f16301&oe=55618928&__gda__=1431150033_096714feaf963f62da6916b7f2853723
p599
sa(dp600
g2
Vhttps://fbcdn-sphotos-a-a.akamaihd.net/hphotos-ak-xpa1/v/t1.0-9/s720x720/10847906_10154959226650434_7650219381358813095_n.jpg?oh=89de9783068f5375f72636268af299c1&oe=55520527&__gda__=1430784984_35e224c0df4a83e1c852ad7145489769
p601
sg4
V10847906_10154959226650434_7650219381358813095_n.jpg?oh=89de9783068f5375f72636268af299c1&oe=55520527&__gda__=1430784984_35e224c0df4a83e1c852ad7145489769
p602
sa(dp603
g2
Vhttps://fbcdn-sphotos-c-a.akamaihd.net/hphotos-ak-xfa1/v/t1.0-9/s720x720/988874_10154954658090434_2568250416343400185_n.jpg?oh=2eee187fa034c5a4ad526f7fd853bd83&oe=55486871&__gda__=1431692707_9ab63b8dd496f55984f137dccdd58ca3
p604
sg4
V988874_10154954658090434_2568250416343400185_n.jpg?oh=2eee187fa034c5a4ad526f7fd853bd83&oe=55486871&__gda__=1431692707_9ab63b8dd496f55984f137dccdd58ca3
p605
sa(dp606
g2
Vhttps://scontent-a.xx.fbcdn.net/hphotos-xpa1/v/t1.0-9/s720x720/10429213_10154954657900434_3322221151507086960_n.jpg?oh=214f4bb96ca17e1a618cb0140a2a08d9&oe=5568EF9B
p607
sg4
VbabeEF9B
p608
sa(dp609
g2
Vhttps://fbcdn-sphotos-d-a.akamaihd.net/hphotos-ak-xpa1/v/t1.0-9/s720x720/1527100_10154954657785434_8644195524039234986_n.jpg?oh=971015e29e7cf6c46aebcb25dae76779&oe=5553C5F0&__gda__=1432183861_ed0331a9fd56cdace496b45a7e6b8b76
p610
sg4
V1527100_10154954657785434_8644195524039234986_n.jpg?oh=971015e29e7cf6c46aebcb25dae76779&oe=5553C5F0&__gda__=1432183861_ed0331a9fd56cdace496b45a7e6b8b76
p611
sa(dp612
g2
Vhttps://fbcdn-sphotos-f-a.akamaihd.net/hphotos-ak-xpf1/v/t1.0-9/s720x720/10389343_10154954657695434_1536560775646623942_n.jpg?oh=d9022954d55433d4a11edaa654f2e0c0&oe=555DCB2A&__gda__=1435885628_dfc1cb1c3ee9e9ab2d7b1fe7d7b51e78
p613
sg4
Vcaption1e78
p614
sa(dp615
g2
Vhttps://fbcdn-sphotos-e-a.akamaihd.net/hphotos-ak-xpa1/v/t1.0-9/s720x720/10419494_10154954657585434_1454417452817815315_n.jpg?oh=6b67467f2146518ad78aa5d67cda63f0&oe=55937C7E&__gda__=1432179073_7d304d3b5db7a08b4a9b98f3ff267d86
p616
sg4
V10419494_10154954657585434_1454417452817815315_n.jpg?oh=6b67467f2146518ad78aa5d67cda63f0&oe=55937C7E&__gda__=1432179073_7d304d3b5db7a08b4a9b98f3ff267d86
p617
sa(dp618
g2
Vhttps://scontent-a.xx.fbcdn.net/hphotos-xpa1/v/t1.0-9/s720x720/13798_10154954657465434_663333159217923716_n.jpg?oh=8207e3d7b614200e83fdc0aaa55f4570&oe=5592C84B
p619
sg4
V13798_10154954657465434_663333159217923716_n.jpg?oh=8207e3d7b614200e83fdc0aaa55f4570&oe=5592C84B
p620
sa(dp621
g2
Vhttps://fbcdn-sphotos-a-a.akamaihd.net/hphotos-ak-xpf1/v/t1.0-9/s720x720/16426_10154954657310434_7227188954724000502_n.jpg?oh=22f454c16eec73b7aaed343174fe72e0&oe=555B7CEB&__gda__=1431628396_aa4c8422828ef5cba0361e6adf842cbc
p622
sg4
V16426_10154954657310434_7227188954724000502_n.jpg?oh=22f454c16eec73b7aaed343174fe72e0&oe=555B7CEB&__gda__=1431628396_aa4c8422828ef5cba0361e6adf842cbc
p623
sa(dp624
g2
Vhttps://scontent-a.xx.fbcdn.net/hphotos-xpa1/v/t1.0-9/s720x720/1450914_10154954657220434_4997063606872134217_n.jpg?oh=aa6631e79bd5d8df0f28305d837b2fb8&oe=5554FEE5
p625
sg4
Vgod BLESSFEE5
p626
sa(dp627
g2
Vhttps://fbcdn-sphotos-f-a.akamaihd.net/hphotos-ak-xpf1/v/t1.0-9/s720x720/1475912_10154954657105434_5550241158971348718_n.jpg?oh=21173c485ee0b5bdc16995efa8b1e6cf&oe=554F5D7A&__gda__=1431427281_fe6c15fce9ae28ab9debdc8f038df088
p628
sg4
V1475912_10154954657105434_5550241158971348718_n.jpg?oh=21173c485ee0b5bdc16995efa8b1e6cf&oe=554F5D7A&__gda__=1431427281_fe6c15fce9ae28ab9debdc8f038df088
p629
sa(dp630
g2
Vhttps://fbcdn-sphotos-d-a.akamaihd.net/hphotos-ak-xpf1/v/t1.0-9/s720x720/10479511_10154954590835434_8000577714634363159_n.jpg?oh=3b6b51780c23507424681072d742cb96&oe=555B36E7&__gda__=1430978801_f43c15b34579605fef4e99a23273a7d6
p631
sg4
Vi miss resnika7d6
p632
sa(dp633
g2
Vhttps://scontent-b.xx.fbcdn.net/hphotos-xpf1/v/t1.0-9/s720x720/1911875_10154950788940434_5040158512407616912_n.jpg?oh=531c89647d603cd72ce1cbb2262b973e&oe=5595E957
p634
sg4
V1911875_10154950788940434_5040158512407616912_n.jpg?oh=531c89647d603cd72ce1cbb2262b973e&oe=5595E957
p635
sa(dp636
g2
Vhttps://fbcdn-sphotos-h-a.akamaihd.net/hphotos-ak-xfp1/v/t1.0-9/s720x720/1959295_10154950788875434_5583974254787750711_n.jpg?oh=6f8087769f8f450d8f47ce68ec767f0d&oe=5551ED6C&__gda__=1432791741_97499d0bbc878635b4b9d1c6bff1f99d
p637
sg4
V1959295_10154950788875434_5583974254787750711_n.jpg?oh=6f8087769f8f450d8f47ce68ec767f0d&oe=5551ED6C&__gda__=1432791741_97499d0bbc878635b4b9d1c6bff1f99d
p638
sa(dp639
g2
Vhttps://scontent-a.xx.fbcdn.net/hphotos-xpa1/v/t1.0-9/p720x720/1560740_10154950753160434_2303300218087802202_n.jpg?oh=bba93cac1df685338531f461d871b103&oe=555DF618
p640
sg4
V1560740_10154950753160434_2303300218087802202_n.jpg?oh=bba93cac1df685338531f461d871b103&oe=555DF618
p641
sa(dp642
g2
Vhttps://fbcdn-sphotos-e-a.akamaihd.net/hphotos-ak-xpa1/v/t1.0-9/s720x720/10451910_10154950753045434_9096517541582941424_n.jpg?oh=9cd48f26ba08fdab5259d3f7cddf2b24&oe=555305F9&__gda__=1431014662_28ae32afb50cf07b7c9c562a832b539c
p643
sg4
V10451910_10154950753045434_9096517541582941424_n.jpg?oh=9cd48f26ba08fdab5259d3f7cddf2b24&oe=555305F9&__gda__=1431014662_28ae32afb50cf07b7c9c562a832b539c
p644
sa(dp645
g2
Vhttps://fbcdn-sphotos-f-a.akamaihd.net/hphotos-ak-xfp1/v/t1.0-9/p480x480/10603622_10154950752940434_1824843526587949510_n.jpg?oh=1518bc5f285768dcf6b19201e4dd8028&oe=5557D413&__gda__=1431358954_001798d1a09c46c1be8b28736d405040
p646
sg4
Vcomic relief5040
p647
sa(dp648
g2
Vhttps://scontent-b.xx.fbcdn.net/hphotos-xpf1/v/t1.0-9/s720x720/10801965_10154950752880434_2428192850381568652_n.jpg?oh=21ce8dfdb93d536a624c7a6405332f52&oe=55687591
p649
sg4
V10801965_10154950752880434_2428192850381568652_n.jpg?oh=21ce8dfdb93d536a624c7a6405332f52&oe=55687591
p650
sa(dp651
g2
Vhttps://fbcdn-sphotos-b-a.akamaihd.net/hphotos-ak-prn2/v/t1.0-9/p720x720/10858424_10154950752820434_5439100930610018694_n.jpg?oh=c2ca4bfba475342d6337bcdfc95421b3&oe=5560E4B8&__gda__=1432142396_d7b1dc02274d4953e0e7bcad98a8821c
p652
sg4
V10858424_10154950752820434_5439100930610018694_n.jpg?oh=c2ca4bfba475342d6337bcdfc95421b3&oe=5560E4B8&__gda__=1432142396_d7b1dc02274d4953e0e7bcad98a8821c
p653
sa(dp654
g2
Vhttps://fbcdn-sphotos-h-a.akamaihd.net/hphotos-ak-xpf1/v/t1.0-9/p720x720/10848029_10154950752705434_5478869459666704212_n.jpg?oh=5441327020c84fcd1083d1b83c4cb4e2&oe=5564F1FC&__gda__=1431186666_319203c93359a735b3f2d3ad52ce80d0
p655
sg4
V10848029_10154950752705434_5478869459666704212_n.jpg?oh=5441327020c84fcd1083d1b83c4cb4e2&oe=5564F1FC&__gda__=1431186666_319203c93359a735b3f2d3ad52ce80d0
p656
sa(dp657
g2
Vhttps://fbcdn-sphotos-e-a.akamaihd.net/hphotos-ak-xfa1/v/t1.0-9/q81/p720x720/10846165_10154950752640434_5210183518336398785_n.jpg?oh=4fe189b0117dce191b92e96b672f6971&oe=5557EF81&__gda__=1432677379_3dfb8d5951fdf977dfc7f3b2caf1344f
p658
sg4
V10846165_10154950752640434_5210183518336398785_n.jpg?oh=4fe189b0117dce191b92e96b672f6971&oe=5557EF81&__gda__=1432677379_3dfb8d5951fdf977dfc7f3b2caf1344f
p659
sa(dp660
g2
Vhttps://scontent-a.xx.fbcdn.net/hphotos-xap1/v/t1.0-9/s720x720/10845952_10154950752470434_1331852580561290794_n.jpg?oh=5f5b92dfe53dfdd037bc4f61bc0947f6&oe=554CC54F
p661
sg4
V10845952_10154950752470434_1331852580561290794_n.jpg?oh=5f5b92dfe53dfdd037bc4f61bc0947f6&oe=554CC54F
p662
sa(dp663
g2
Vhttps://scontent-a.xx.fbcdn.net/hphotos-xfa1/v/t1.0-9/p480x480/1486809_10154950752390434_2650151136884305495_n.jpg?oh=062778b4b4969f318fedec0ea8fa03e5&oe=555ADB60
p664
sg4
V1486809_10154950752390434_2650151136884305495_n.jpg?oh=062778b4b4969f318fedec0ea8fa03e5&oe=555ADB60
p665
sa(dp666
g2
Vhttps://fbcdn-sphotos-e-a.akamaihd.net/hphotos-ak-xfa1/v/t1.0-9/s720x720/10849868_10154950752300434_1069606307232727665_n.jpg?oh=5f07fef3114f02a0e9c67cded88ffd7a&oe=554BB911&__gda__=1431113039_b9c161de8f5739e56b17ed4a05f79fb4
p667
sg4
Vsour patch kids colors9fb4
p668
sa(dp669
g2
Vhttps://fbcdn-sphotos-c-a.akamaihd.net/hphotos-ak-xap1/v/t1.0-9/s720x720/10686816_10154950752215434_6865176862651124531_n.jpg?oh=2867f2c3498cc37209a87882bc9d7420&oe=5568021E&__gda__=1435965605_9a12416209d7e990a6eca31a7129c3a8
p670
sg4
V10686816_10154950752215434_6865176862651124531_n.jpg?oh=2867f2c3498cc37209a87882bc9d7420&oe=5568021E&__gda__=1435965605_9a12416209d7e990a6eca31a7129c3a8
p671
sa(dp672
g2
Vhttps://fbcdn-sphotos-d-a.akamaihd.net/hphotos-ak-xpa1/v/t1.0-9/s720x720/10846246_10154950737700434_2521122889654196011_n.jpg?oh=76f6615c8897f5ddfcc2db225986c399&oe=554FC109&__gda__=1432397814_c5188f30290d50b64c2a12e320c50b4c
p673
sg4
V10846246_10154950737700434_2521122889654196011_n.jpg?oh=76f6615c8897f5ddfcc2db225986c399&oe=554FC109&__gda__=1432397814_c5188f30290d50b64c2a12e320c50b4c
p674
sa(dp675
g2
Vhttps://fbcdn-sphotos-f-a.akamaihd.net/hphotos-ak-prn2/v/t1.0-9/s720x720/10857901_10154950737640434_8556713740098941192_n.jpg?oh=fd9465eedb4b64f5627f554c09b23259&oe=554B463E&__gda__=1432204474_4a2bc6140edb0658b2a1828188638062
p676
sg4
V10857901_10154950737640434_8556713740098941192_n.jpg?oh=fd9465eedb4b64f5627f554c09b23259&oe=554B463E&__gda__=1432204474_4a2bc6140edb0658b2a1828188638062
p677
sa(dp678
g2
Vhttps://fbcdn-sphotos-h-a.akamaihd.net/hphotos-ak-xap1/v/t1.0-9/s720x720/10423846_10154950737515434_1355059129084821106_n.jpg?oh=58e1be0f287fea11dfbd0996518762e8&oe=5548E8A6&__gda__=1432410653_9b9f4b5be92464e8725037a1955e6635
p679
sg4
V10423846_10154950737515434_1355059129084821106_n.jpg?oh=58e1be0f287fea11dfbd0996518762e8&oe=5548E8A6&__gda__=1432410653_9b9f4b5be92464e8725037a1955e6635
p680
sa(dp681
g2
Vhttps://scontent-b.xx.fbcdn.net/hphotos-xfp1/v/t1.0-9/s720x720/10410850_10154950737400434_5139735963105493125_n.jpg?oh=139581ae6b6f53c1ad8e380a778a7bf2&oe=55481194
p682
sg4
V10410850_10154950737400434_5139735963105493125_n.jpg?oh=139581ae6b6f53c1ad8e380a778a7bf2&oe=55481194
p683
sa(dp684
g2
Vhttps://fbcdn-sphotos-c-a.akamaihd.net/hphotos-ak-xpa1/v/t1.0-9/s720x720/1013633_10154950737320434_3410817458907191407_n.jpg?oh=305d25cf1dc40e7a0c0ed41be66fdf8f&oe=555BD49C&__gda__=1431710297_7218beb8d18010e4d38b2b0d679df349
p685
sg4
V1013633_10154950737320434_3410817458907191407_n.jpg?oh=305d25cf1dc40e7a0c0ed41be66fdf8f&oe=555BD49C&__gda__=1431710297_7218beb8d18010e4d38b2b0d679df349
p686
sa(dp687
g2
Vhttps://fbcdn-sphotos-e-a.akamaihd.net/hphotos-ak-xpa1/t31.0-8/s720x720/10872771_10154950737260434_6847566873740750918_o.jpg
p688
sg4
V10872771_10154950737260434_6847566873740750918_o.jpg
p689
sa(dp690
g2
Vhttps://fbcdn-sphotos-g-a.akamaihd.net/hphotos-ak-xpa1/v/t1.0-9/s720x720/10403635_10154937890910434_3015234266560560431_n.jpg?oh=6ad76ab35986cf2152f0453c7db4c925&oe=555F1E57&__gda__=1431383720_84cb4b98e600ce49b5c25a0ccd4dc28b
p691
sg4
V10403635_10154937890910434_3015234266560560431_n.jpg?oh=6ad76ab35986cf2152f0453c7db4c925&oe=555F1E57&__gda__=1431383720_84cb4b98e600ce49b5c25a0ccd4dc28b
p692
sa(dp693
g2
Vhttps://fbcdn-sphotos-a-a.akamaihd.net/hphotos-ak-xfp1/v/t1.0-9/q87/s720x720/1601287_10154937890780434_7727034873199795911_n.jpg?oh=916bb7346b7c9157bf29f939e23baa7b&oe=55668BE3&__gda__=1435717491_70be670318806b1e7a56a4a30da81081
p694
sg4
V1601287_10154937890780434_7727034873199795911_n.jpg?oh=916bb7346b7c9157bf29f939e23baa7b&oe=55668BE3&__gda__=1435717491_70be670318806b1e7a56a4a30da81081
p695
sa(dp696
g2
Vhttps://fbcdn-sphotos-f-a.akamaihd.net/hphotos-ak-xfp1/v/t1.0-9/p720x720/10857888_10154937890635434_4412504161908866535_n.jpg?oh=aab288e28c3a36a5707656a0b2f73385&oe=5566584E&__gda__=1431119543_2df9b2b18744544f2f0a37c16dedb818
p697
sg4
V10857888_10154937890635434_4412504161908866535_n.jpg?oh=aab288e28c3a36a5707656a0b2f73385&oe=5566584E&__gda__=1431119543_2df9b2b18744544f2f0a37c16dedb818
p698
sa(dp699
g2
Vhttps://fbcdn-sphotos-d-a.akamaihd.net/hphotos-ak-xpf1/v/t1.0-9/s720x720/10426137_10154933793845434_260566670953038507_n.jpg?oh=ab694558a9226d66be7b35c4b679aa8d&oe=55685A54&__gda__=1431771391_4b5f759598dac86f9e9ab810886201db
p700
sg4
V10426137_10154933793845434_260566670953038507_n.jpg?oh=ab694558a9226d66be7b35c4b679aa8d&oe=55685A54&__gda__=1431771391_4b5f759598dac86f9e9ab810886201db
p701
sa(dp702
g2
Vhttps://scontent-a.xx.fbcdn.net/hphotos-xpf1/v/t1.0-9/s720x720/10848030_10154933501650434_6423468990853011139_n.jpg?oh=47f52d2b95caa84e6f080081958402d0&oe=55602797
p703
sg4
V10848030_10154933501650434_6423468990853011139_n.jpg?oh=47f52d2b95caa84e6f080081958402d0&oe=55602797
p704
sa(dp705
g2
Vhttps://scontent-a.xx.fbcdn.net/hphotos-xaf1/v/t1.0-9/s720x720/10407823_10154933501350434_478625981227630365_n.jpg?oh=ebddd049a8fadbb7bd11cb0b58394c48&oe=555037B2
p706
sg4
V10407823_10154933501350434_478625981227630365_n.jpg?oh=ebddd049a8fadbb7bd11cb0b58394c48&oe=555037B2
p707
sa(dp708
g2
Vhttps://scontent-a.xx.fbcdn.net/hphotos-xpf1/v/t1.0-9/s720x720/10850047_10154933501165434_141469162887796854_n.jpg?oh=3f172d1334381fb3d0d146815731758b&oe=55959007
p709
sg4
V10850047_10154933501165434_141469162887796854_n.jpg?oh=3f172d1334381fb3d0d146815731758b&oe=55959007
p710
sa(dp711
g2
Vhttps://scontent-a.xx.fbcdn.net/hphotos-xpa1/v/t1.0-9/s720x720/1239700_10154933501010434_8930697937934287451_n.jpg?oh=e0463a24aee1b6424249a0f6b81331f5&oe=5551547B
p712
sg4
V1239700_10154933501010434_8930697937934287451_n.jpg?oh=e0463a24aee1b6424249a0f6b81331f5&oe=5551547B
p713
sa(dp714
g2
Vhttps://scontent-b.xx.fbcdn.net/hphotos-xap1/v/t1.0-9/q82/s720x720/10846279_10154927751895434_7989852926783053076_n.jpg?oh=c1f26ce3fc1f8e739989bd6c01bfc278&oe=555A1855
p715
sg4
V10846279_10154927751895434_7989852926783053076_n.jpg?oh=c1f26ce3fc1f8e739989bd6c01bfc278&oe=555A1855
p716
sa(dp717
g2
Vhttps://fbcdn-sphotos-h-a.akamaihd.net/hphotos-ak-xpa1/v/t1.0-9/s720x720/553279_10154927751800434_5840657501067797192_n.jpg?oh=86dbec00691d28a09a18bf3495db97a6&oe=5558FE77&__gda__=1432014481_94227cc659a5b9c6102215a40d9e1b0e
p718
sg4
V553279_10154927751800434_5840657501067797192_n.jpg?oh=86dbec00691d28a09a18bf3495db97a6&oe=5558FE77&__gda__=1432014481_94227cc659a5b9c6102215a40d9e1b0e
p719
sa(dp720
g2
Vhttps://fbcdn-sphotos-c-a.akamaihd.net/hphotos-ak-xpa1/v/t1.0-9/s720x720/10351885_10154916350075434_6386675812812519393_n.jpg?oh=0921b4be7f05986509602a8e03b45032&oe=554FBDA3&__gda__=1432018524_989299230075ab0e96e804b60b539b9e
p721
sg4
Vmerry xmas to myself9b9e
p722
sa(dp723
g2
Vhttps://scontent-a.xx.fbcdn.net/hphotos-xpf1/v/t1.0-9/q81/s720x720/10858401_10154915796000434_4333689829485354491_n.jpg?oh=0f19b5d34a48807b3831aac2d327ae1e&oe=5593B89B
p724
sg4
V10858401_10154915796000434_4333689829485354491_n.jpg?oh=0f19b5d34a48807b3831aac2d327ae1e&oe=5593B89B
p725
sa(dp726
g2
Vhttps://fbcdn-sphotos-f-a.akamaihd.net/hphotos-ak-xfp1/v/t1.0-9/s720x720/10848027_10154915795925434_8687757429018984526_n.jpg?oh=6ef84acca352442c0edc42f33f163bde&oe=55480CE8&__gda__=1432389649_21eb84e8c3eb7b122b217e0a5a99d91b
p727
sg4
V10848027_10154915795925434_8687757429018984526_n.jpg?oh=6ef84acca352442c0edc42f33f163bde&oe=55480CE8&__gda__=1432389649_21eb84e8c3eb7b122b217e0a5a99d91b
p728
sa(dp729
g2
Vhttps://fbcdn-sphotos-d-a.akamaihd.net/hphotos-ak-xap1/v/t1.0-9/s720x720/10624687_10154915795845434_7734572528347925447_n.jpg?oh=a8080d6b443c9066552041987c2f670c&oe=55618BA7&__gda__=1432970268_b39ff24ab230313e85e600905fa20b1d
p730
sg4
V10624687_10154915795845434_7734572528347925447_n.jpg?oh=a8080d6b443c9066552041987c2f670c&oe=55618BA7&__gda__=1432970268_b39ff24ab230313e85e600905fa20b1d
p731
sa(dp732
g2
Vhttps://scontent-b.xx.fbcdn.net/hphotos-xpf1/v/t1.0-9/s720x720/10606131_10154915795765434_5810402829090600553_n.jpg?oh=9437e211445f20f683a6522dc1209bbe&oe=554E5BAE
p733
sg4
V10606131_10154915795765434_5810402829090600553_n.jpg?oh=9437e211445f20f683a6522dc1209bbe&oe=554E5BAE
p734
sa(dp735
g2
Vhttps://scontent-b.xx.fbcdn.net/hphotos-xfp1/v/t1.0-9/q84/s720x720/10177285_10154915795700434_4893320884530679742_n.jpg?oh=62b45ec04dcd4f580da80c145c5bb139&oe=555B334C
p736
sg4
V10177285_10154915795700434_4893320884530679742_n.jpg?oh=62b45ec04dcd4f580da80c145c5bb139&oe=555B334C
p737
sa(dp738
g2
Vhttps://fbcdn-sphotos-e-a.akamaihd.net/hphotos-ak-xfp1/v/t1.0-9/s720x720/1555366_10154915795635434_3733060782201180842_n.jpg?oh=bc9dea99cbf03f09466de08b1afdd7fb&oe=555C75E4&__gda__=1432219445_3419a69d9827e7fd51f235a46dc1e5b3
p739
sg4
V1555366_10154915795635434_3733060782201180842_n.jpg?oh=bc9dea99cbf03f09466de08b1afdd7fb&oe=555C75E4&__gda__=1432219445_3419a69d9827e7fd51f235a46dc1e5b3
p740
sa(dp741
g2
Vhttps://scontent-a.xx.fbcdn.net/hphotos-xpa1/v/t1.0-9/s720x720/10429379_10154915795595434_1892743974067667209_n.jpg?oh=e55470d73d71b41dd191d4f2d3ab8a43&oe=5565CCE9
p742
sg4
V10429379_10154915795595434_1892743974067667209_n.jpg?oh=e55470d73d71b41dd191d4f2d3ab8a43&oe=5565CCE9
p743
sa(dp744
g2
Vhttps://scontent-a.xx.fbcdn.net/hphotos-xaf1/v/t1.0-9/s720x720/1912151_10154915795490434_7428038641668121968_n.jpg?oh=a499124d89d19bb2595557dce174447f&oe=55961510
p745
sg4
VahaahaAHAHAH1510
p746
sa(dp747
g2
Vhttps://fbcdn-sphotos-g-a.akamaihd.net/hphotos-ak-xpa1/v/t1.0-9/p720x720/10858392_10154915795370434_3280076291228917411_n.jpg?oh=c69b2c6d7c6f5cfb6015957e01b711c7&oe=555ABCBC&__gda__=1435725635_c771fd33e37e738c16b5f5f63718d2d9
p748
sg4
V10858392_10154915795370434_3280076291228917411_n.jpg?oh=c69b2c6d7c6f5cfb6015957e01b711c7&oe=555ABCBC&__gda__=1435725635_c771fd33e37e738c16b5f5f63718d2d9
p749
sa(dp750
g2
Vhttps://fbcdn-sphotos-d-a.akamaihd.net/hphotos-ak-xpf1/v/t1.0-9/s720x720/10665346_10154912774395434_4627218443037136854_n.jpg?oh=18caf426bc6d5b71757491cc7189aa40&oe=5569E8E8&__gda__=1430801662_83e9d64ee17ec59d636ebd38a4fcdd39
p751
sg4
Vmy one true lovedd39
p752
sa(dp753
g2
Vhttps://scontent-b.xx.fbcdn.net/hphotos-xpf1/v/t1.0-9/p720x720/10419028_10154912626710434_5721139983274434036_n.jpg?oh=438837b9e06525672a6cbc7c25024fdd&oe=5548B498
p754
sg4
VDiplo x Skrillex  Jack USkrillex  Diplo at Madison Square Garden wAAP Ferg Rudimental and YelB498
p755
sa(dp756
g2
Vhttps://fbcdn-sphotos-c-a.akamaihd.net/hphotos-ak-xpa1/v/t1.0-9/s720x720/10439009_10154901184650434_751312061101142049_n.jpg?oh=bfe9ad238cb9e7463d625c66cab2349d&oe=5569D224&__gda__=1435936737_d7006206a80355f896c27c558ad3870d
p757
sg4
Vmy interp class summed up in a picture870d
p758
sa(dp759
g2
Vhttps://fbcdn-sphotos-a-a.akamaihd.net/hphotos-ak-xpf1/v/t1.0-9/10441038_10154887930050434_5014620380679026722_n.jpg?oh=4495122842970633f84305de4aea9def&oe=554A1F81&__gda__=1431514110_ba8baeebf5be83a3500a4d5d8d0c2b18
p760
sg4
V2b18
p761
sa(dp762
g2
Vhttps://scontent-b.xx.fbcdn.net/hphotos-xfp1/v/t1.0-9/s720x720/1507083_10154880102125434_1832566062286067405_n.jpg?oh=11e7391e5c40c1e170d01801dff17aa8&oe=556530C7
p763
sg4
V1507083_10154880102125434_1832566062286067405_n.jpg?oh=11e7391e5c40c1e170d01801dff17aa8&oe=556530C7
p764
sa(dp765
g2
Vhttps://fbcdn-sphotos-d-a.akamaihd.net/hphotos-ak-xfp1/v/t1.0-9/q82/s720x720/1978863_10154873008930434_7344190078540314077_n.jpg?oh=b060fa32749bc9410191e318b7191966&oe=555C7F0A&__gda__=1432777882_98139a279a60af4054baf27f4b024300
p766
sg4
V1978863_10154873008930434_7344190078540314077_n.jpg?oh=b060fa32749bc9410191e318b7191966&oe=555C7F0A&__gda__=1432777882_98139a279a60af4054baf27f4b024300
p767
sa(dp768
g2
Vhttps://scontent-b.xx.fbcdn.net/hphotos-xfp1/v/t1.0-9/s720x720/1503274_10154873008825434_1286182810835083506_n.jpg?oh=c61a6491b74ffb1cdf5680cb6e2b3f72&oe=554C43C8
p769
sg4
V1503274_10154873008825434_1286182810835083506_n.jpg?oh=c61a6491b74ffb1cdf5680cb6e2b3f72&oe=554C43C8
p770
sa(dp771
g2
Vhttps://scontent-b.xx.fbcdn.net/hphotos-xpf1/v/t1.0-9/s720x720/1898287_10154873008640434_1595558030915535700_n.jpg?oh=14d1a2e1cbe581778a8e70a262cbf086&oe=555EBECA
p772
sg4
V1898287_10154873008640434_1595558030915535700_n.jpg?oh=14d1a2e1cbe581778a8e70a262cbf086&oe=555EBECA
p773
sa(dp774
g2
Vhttps://fbcdn-sphotos-a-a.akamaihd.net/hphotos-ak-xfa1/v/t1.0-9/s720x720/10625143_10154873008515434_7296361630396934084_n.jpg?oh=5eac0af698b2131177c753be3a84adb6&oe=5557656E&__gda__=1431964464_1dd58d72789421f39397f3f86187e6c6
p775
sg4
V10625143_10154873008515434_7296361630396934084_n.jpg?oh=5eac0af698b2131177c753be3a84adb6&oe=5557656E&__gda__=1431964464_1dd58d72789421f39397f3f86187e6c6
p776
sa(dp777
g2
Vhttps://fbcdn-sphotos-g-a.akamaihd.net/hphotos-ak-xaf1/v/t1.0-9/s720x720/10734231_10154873008360434_8206374443424698125_n.jpg?oh=7a59ee49aed3f8b211b4e2072f66df93&oe=554A6B6D&__gda__=1432637336_e4b1216ed6ff87f22793e5a4af557fb6
p778
sg4
V10734231_10154873008360434_8206374443424698125_n.jpg?oh=7a59ee49aed3f8b211b4e2072f66df93&oe=554A6B6D&__gda__=1432637336_e4b1216ed6ff87f22793e5a4af557fb6
p779
sa(dp780
g2
Vhttps://fbcdn-sphotos-h-a.akamaihd.net/hphotos-ak-xfp1/v/t1.0-9/s720x720/10455128_10154873008245434_601925369957666648_n.jpg?oh=6263cba23240b6550056ba9c3dbedec6&oe=559464CE&__gda__=1432607519_9941cb184bfb4c62e3cb9b8343523cf6
p781
sg4
V10455128_10154873008245434_601925369957666648_n.jpg?oh=6263cba23240b6550056ba9c3dbedec6&oe=559464CE&__gda__=1432607519_9941cb184bfb4c62e3cb9b8343523cf6
p782
sa(dp783
g2
Vhttps://scontent-b.xx.fbcdn.net/hphotos-xap1/v/t1.0-9/s720x720/10806453_10154873008185434_5302053387762435205_n.jpg?oh=fad9e8fda90ab3a0884fcd87fc0e507e&oe=554D691B
p784
sg4
V10806453_10154873008185434_5302053387762435205_n.jpg?oh=fad9e8fda90ab3a0884fcd87fc0e507e&oe=554D691B
p785
sa(dp786
g2
Vhttps://fbcdn-sphotos-d-a.akamaihd.net/hphotos-ak-xap1/v/t1.0-9/s720x720/1533943_10154873008130434_5715790698354522450_n.jpg?oh=eb070f313cd58f1967d63f1544a3f23d&oe=5565990F&__gda__=1431317815_161ef52f05918a863937464edcc369fd
p787
sg4
V1533943_10154873008130434_5715790698354522450_n.jpg?oh=eb070f313cd58f1967d63f1544a3f23d&oe=5565990F&__gda__=1431317815_161ef52f05918a863937464edcc369fd
p788
sa(dp789
g2
Vhttps://fbcdn-sphotos-f-a.akamaihd.net/hphotos-ak-xpa1/v/t1.0-9/s720x720/10422432_10154873008055434_4725089277350979285_n.jpg?oh=51bc9fa65f67d3c43576eb2435f5da89&oe=5563CF64&__gda__=1431591579_56d956f167c91b79fe5c7732d59f5ed4
p790
sg4
V10422432_10154873008055434_4725089277350979285_n.jpg?oh=51bc9fa65f67d3c43576eb2435f5da89&oe=5563CF64&__gda__=1431591579_56d956f167c91b79fe5c7732d59f5ed4
p791
sa(dp792
g2
Vhttps://fbcdn-sphotos-g-a.akamaihd.net/hphotos-ak-xaf1/v/t1.0-9/s720x720/10473169_10154873008000434_7682726016400905223_n.jpg?oh=d114f2bd418345e1bfe2d1f5b3746578&oe=55535744&__gda__=1431040433_4cc69b9e07424c0926be4d9c39e140e9
p793
sg4
Vsmallest ankles40e9
p794
sa(dp795
g2
Vhttps://fbcdn-sphotos-a-a.akamaihd.net/hphotos-ak-xpf1/v/t1.0-9/s720x720/1499632_10154873007955434_944357604046083832_n.jpg?oh=91cbaf47e4f37e5494648b0f0d6a1e27&oe=5569C8CE&__gda__=1432160627_0e42f6553099f95f52d6ec36be53cfb6
p796
sg4
V1499632_10154873007955434_944357604046083832_n.jpg?oh=91cbaf47e4f37e5494648b0f0d6a1e27&oe=5569C8CE&__gda__=1432160627_0e42f6553099f95f52d6ec36be53cfb6
p797
sa(dp798
g2
Vhttps://scontent-a.xx.fbcdn.net/hphotos-xpa1/v/t1.0-9/s720x720/10805548_10154873007885434_5614261067859450133_n.jpg?oh=aa0bbf12946ae20cfeed42c0c3fe0978&oe=55492E25
p799
sg4
V10805548_10154873007885434_5614261067859450133_n.jpg?oh=aa0bbf12946ae20cfeed42c0c3fe0978&oe=55492E25
p800
sa(dp801
g2
Vhttps://fbcdn-sphotos-e-a.akamaihd.net/hphotos-ak-xfa1/v/t1.0-9/s720x720/10511239_10154873007850434_5805710242407658302_n.jpg?oh=9aa7ca329d3d0334458b12c4ed6c2204&oe=554E5EC0&__gda__=1435816094_560517b7faaf9f69ca5304e38810d593
p802
sg4
V10511239_10154873007850434_5805710242407658302_n.jpg?oh=9aa7ca329d3d0334458b12c4ed6c2204&oe=554E5EC0&__gda__=1435816094_560517b7faaf9f69ca5304e38810d593
p803
sa(dp804
g2
Vhttps://fbcdn-sphotos-b-a.akamaihd.net/hphotos-ak-xpa1/v/t1.0-9/s720x720/10460414_10154873007810434_5197891277728526348_n.jpg?oh=07141cc5430bdb22cc3cee559f699b6a&oe=5551515B&__gda__=1432614052_f151d0cf5eda8ed29a58c4e5450bbb2f
p805
sg4
Vdesign struggles whwn you cant doodle in your sketchbook in classbb2f
p806
sa(dp807
g2
Vhttps://scontent-b.xx.fbcdn.net/hphotos-xfp1/v/t1.0-9/p720x720/10710558_10154873007730434_7214858075566208742_n.jpg?oh=2336323c666f1815e1639e89b5614028&oe=559280AC
p808
sg4
V10710558_10154873007730434_7214858075566208742_n.jpg?oh=2336323c666f1815e1639e89b5614028&oe=559280AC
p809
sa(dp810
g2
Vhttps://scontent-a.xx.fbcdn.net/hphotos-xfp1/v/t1.0-9/s720x720/10628578_10154873007630434_2540141760552915318_n.jpg?oh=5986b7ebd044f3eed2cc67e3d7f4a437&oe=559354D7
p811
sg4
V10628578_10154873007630434_2540141760552915318_n.jpg?oh=5986b7ebd044f3eed2cc67e3d7f4a437&oe=559354D7
p812
sa(dp813
g2
Vhttps://fbcdn-sphotos-a-a.akamaihd.net/hphotos-ak-xaf1/v/t1.0-9/s720x720/10696282_10154873007565434_771075999113635548_n.jpg?oh=162ba0b7f0a6911db5b57cc6d0a34514&oe=555EBCC5&__gda__=1431934153_6eacc477703738e8521c4e4f7626b255
p814
sg4
V10696282_10154873007565434_771075999113635548_n.jpg?oh=162ba0b7f0a6911db5b57cc6d0a34514&oe=555EBCC5&__gda__=1431934153_6eacc477703738e8521c4e4f7626b255
p815
sa(dp816
g2
Vhttps://scontent-a.xx.fbcdn.net/hphotos-xpa1/v/t1.0-9/s720x720/10363603_10154873007485434_156131166068669282_n.jpg?oh=d20db4020c82677b04f3d4ce6e03f4fe&oe=5553BEC4
p817
sg4
V10363603_10154873007485434_156131166068669282_n.jpg?oh=d20db4020c82677b04f3d4ce6e03f4fe&oe=5553BEC4
p818
sa(dp819
g2
Vhttps://scontent-a.xx.fbcdn.net/hphotos-xpf1/v/t1.0-9/s720x720/10443381_10154873007325434_5008280703219045474_n.jpg?oh=0ab4d404ebcd74a3dae510bc8cd2fa7f&oe=55577AD4
p820
sg4
V10443381_10154873007325434_5008280703219045474_n.jpg?oh=0ab4d404ebcd74a3dae510bc8cd2fa7f&oe=55577AD4
p821
sa(dp822
g2
Vhttps://scontent-b.xx.fbcdn.net/hphotos-xpf1/v/t1.0-9/s720x720/10712964_10154873007260434_5542207707438714175_n.jpg?oh=649d52ffcdcccb5ec280790bf0b4594e&oe=55489F29
p823
sg4
V10712964_10154873007260434_5542207707438714175_n.jpg?oh=649d52ffcdcccb5ec280790bf0b4594e&oe=55489F29
p824
sa(dp825
g2
Vhttps://scontent-b.xx.fbcdn.net/hphotos-xfp1/v/t1.0-9/s720x720/10433108_10154873007200434_1338418890690515885_n.jpg?oh=706e9166ca784814655c292c554f333e&oe=555032C9
p826
sg4
V10433108_10154873007200434_1338418890690515885_n.jpg?oh=706e9166ca784814655c292c554f333e&oe=555032C9
p827
sa(dp828
g2
Vhttps://fbcdn-sphotos-f-a.akamaihd.net/hphotos-ak-xap1/t31.0-8/s720x720/10750036_10154867363285434_84528970072502467_o.jpg
p829
sg4
V10750036_10154867363285434_84528970072502467_o.jpg
p830
sa(dp831
g2
Vhttps://scontent-a.xx.fbcdn.net/hphotos-xfa1/t31.0-8/s720x720/10704413_10154867363270434_7219354391403263533_o.jpg
p832
sg4
V10704413_10154867363270434_7219354391403263533_o.jpg
p833
sa(dp834
g2
Vhttps://fbcdn-sphotos-a-a.akamaihd.net/hphotos-ak-xaf1/t31.0-8/s720x720/1522560_10154867363255434_4928880228770550871_o.jpg
p835
sg4
V1522560_10154867363255434_4928880228770550871_o.jpg
p836
sa(dp837
g2
Vhttps://fbcdn-sphotos-b-a.akamaihd.net/hphotos-ak-xpf1/t31.0-8/s720x720/1913510_10154867363240434_6831485723246675297_o.jpg
p838
sg4
V1913510_10154867363240434_6831485723246675297_o.jpg
p839
sa(dp840
g2
Vhttps://scontent-b.xx.fbcdn.net/hphotos-xpa1/v/t1.0-9/s720x720/10553627_10154866573625434_2890570463373585488_n.jpg?oh=6bc594b7c17480c6cc70d42da86405be&oe=55929AA9
p841
sg4
V back in the 2129AA9
p842
sa(dp843
g2
Vhttps://scontent-b.xx.fbcdn.net/hphotos-xpf1/v/t1.0-9/s720x720/1472747_10154849962310434_7529034893513184884_n.jpg?oh=b9975424d539449f346eb299a58ce6b5&oe=554A153B
p844
sg4
Vow this hurts153B
p845
sa(dp846
g2
Vhttps://fbcdn-sphotos-d-a.akamaihd.net/hphotos-ak-xap1/v/t1.0-9/s720x720/1383196_10154844024185434_6409275658180059469_n.jpg?oh=e6c57b588d67aa23e03d4fe38dc301a4&oe=5556DAFD&__gda__=1432682949_5ddf62205d569487d1367fc0daa5d2d4
p847
sg4
V1383196_10154844024185434_6409275658180059469_n.jpg?oh=e6c57b588d67aa23e03d4fe38dc301a4&oe=5556DAFD&__gda__=1432682949_5ddf62205d569487d1367fc0daa5d2d4
p848
sa(dp849
g2
Vhttps://scontent-a.xx.fbcdn.net/hphotos-xaf1/v/t1.0-9/s720x720/10734196_10154844024150434_6100273650338055253_n.jpg?oh=bf1f83bcb8f08b8b187fe1c8bfb7d433&oe=554BBF36
p850
sg4
Vactually great lightingBF36
p851
sa(dp852
g2
Vhttps://fbcdn-sphotos-e-a.akamaihd.net/hphotos-ak-xpa1/v/t1.0-9/s720x720/10351237_10154837139205434_1271782136481518139_n.jpg?oh=b3bd28290abe4f9b639414e1ad1876ff&oe=5568299A&__gda__=1432031077_6c02b13701d7b99c221664b44e039b97
p853
sg4
Vburrrito bby9b97
p854
sa(dp855
g2
Vhttps://fbcdn-sphotos-b-a.akamaihd.net/hphotos-ak-xfp1/v/t1.0-9/s720x720/1255527_10154837135770434_8075023212701972364_n.jpg?oh=2359a834accb09bcf864e958ba320704&oe=5567446F&__gda__=1431027390_685e8468b634740600fb8e5494d1c848
p856
sg4
V1255527_10154837135770434_8075023212701972364_n.jpg?oh=2359a834accb09bcf864e958ba320704&oe=5567446F&__gda__=1431027390_685e8468b634740600fb8e5494d1c848
p857
sa(dp858
g2
Vhttps://scontent-a.xx.fbcdn.net/hphotos-xpa1/v/t1.0-9/s720x720/10354592_10154837135730434_3964004680512927665_n.jpg?oh=ca74d3628d0d92ce64d93dc8105bce32&oe=5551250F
p859
sg4
Vsnap of someone chopping up a hot cheeto wow modern art250F
p860
sa(dp861
g2
Vhttps://fbcdn-sphotos-g-a.akamaihd.net/hphotos-ak-xfa1/v/t1.0-9/p720x720/10806462_10154837135640434_7815357676806251381_n.jpg?oh=6631a2aa46ead593dac1bc7cf4e9ee01&oe=559356F2&__gda__=1430989740_9bb64eea42d502159172d921a84409c2
p862
sg4
V10806462_10154837135640434_7815357676806251381_n.jpg?oh=6631a2aa46ead593dac1bc7cf4e9ee01&oe=559356F2&__gda__=1430989740_9bb64eea42d502159172d921a84409c2
p863
sa(dp864
g2
Vhttps://fbcdn-sphotos-e-a.akamaihd.net/hphotos-ak-xpa1/v/t1.0-9/q82/s720x720/10484775_10154833150465434_3097127725876887976_n.jpg?oh=9c6a65e5859837b1f273cae68fe88589&oe=555C9996&__gda__=1432639760_6e2c32b5e5f213b08dba07b42daa8b54
p865
sg4
V10484775_10154833150465434_3097127725876887976_n.jpg?oh=9c6a65e5859837b1f273cae68fe88589&oe=555C9996&__gda__=1432639760_6e2c32b5e5f213b08dba07b42daa8b54
p866
sa(dp867
g2
Vhttps://scontent-a.xx.fbcdn.net/hphotos-xpa1/v/t1.0-9/s720x720/10696328_10154833150410434_4992921385663256981_n.jpg?oh=62ac5fbb49332fa1b7901db7ef518f4a&oe=554EF1EF
p868
sg4
VIzzy Liberti r u okF1EF
p869
sa(dp870
g2
Vhttps://scontent-b.xx.fbcdn.net/hphotos-xfp1/v/t1.0-9/s720x720/535932_10154833150325434_7518438112060897353_n.jpg?oh=a5c35ebd84762bb0985bd822c5b875b0&oe=555262BF
p871
sg4
V535932_10154833150325434_7518438112060897353_n.jpg?oh=a5c35ebd84762bb0985bd822c5b875b0&oe=555262BF
p872
sa(dp873
g2
Vhttps://scontent-b.xx.fbcdn.net/hphotos-xfp1/v/t1.0-9/s720x720/10801678_10154833150235434_2506057951394658130_n.jpg?oh=e8cded41209d5fe928674c0689b8b328&oe=5563B313
p874
sg4
Vtybg aka apple cause they paid for a waffle truckB313
p875
sa(dp876
g2
Vhttps://scontent-b.xx.fbcdn.net/hphotos-xfp1/v/t1.0-9/s720x720/10012559_10154833150110434_7205068915196922517_n.jpg?oh=3e71e640fe6dd1e14834319087d5f106&oe=5553E20A
p877
sg4
Vwe broke the world record for most balloons blown in a minute by a team of pplE20A
p878
sa(dp879
g2
Vhttps://fbcdn-sphotos-d-a.akamaihd.net/hphotos-ak-xfp1/v/t1.0-9/p480x480/10388071_10154833150045434_2004483946073851804_n.jpg?oh=0f67b239fed23689c0ff96eeead859c0&oe=555791FF&__gda__=1431617030_960c42932d840589422b3670b10b197c
p880
sg4
V10388071_10154833150045434_2004483946073851804_n.jpg?oh=0f67b239fed23689c0ff96eeead859c0&oe=555791FF&__gda__=1431617030_960c42932d840589422b3670b10b197c
p881
sa(dp882
g2
Vhttps://fbcdn-sphotos-e-a.akamaihd.net/hphotos-ak-xfp1/v/t1.0-9/q82/s720x720/10297569_10154833149920434_5087387206265276393_n.jpg?oh=f4c11c4e51f40a8add5ceab53954f3a2&oe=55590733&__gda__=1435699904_2cc78437e4a4fcaca922757b274f01a4
p883
sg4
V10297569_10154833149920434_5087387206265276393_n.jpg?oh=f4c11c4e51f40a8add5ceab53954f3a2&oe=55590733&__gda__=1435699904_2cc78437e4a4fcaca922757b274f01a4
p884
sa(dp885
g2
Vhttps://fbcdn-sphotos-c-a.akamaihd.net/hphotos-ak-xpa1/v/t1.0-9/s720x720/10387643_10154833149745434_2440691999729315258_n.jpg?oh=6a70a72ebddb48cfee00949e16d4cc16&oe=554A8456&__gda__=1431947433_b68fc123a319474f85a795fc7e93c3f8
p886
sg4
V10387643_10154833149745434_2440691999729315258_n.jpg?oh=6a70a72ebddb48cfee00949e16d4cc16&oe=554A8456&__gda__=1431947433_b68fc123a319474f85a795fc7e93c3f8
p887
sa(dp888
g2
Vhttps://fbcdn-sphotos-d-a.akamaihd.net/hphotos-ak-xpf1/v/t1.0-9/s720x720/10383963_10154833149640434_794049242699921144_n.jpg?oh=bb536e684f8c1ddd000692e465548154&oe=555DB3AC&__gda__=1432464647_ae39cfadd70d8d1ae878fcff26982251
p889
sg4
V10383963_10154833149640434_794049242699921144_n.jpg?oh=bb536e684f8c1ddd000692e465548154&oe=555DB3AC&__gda__=1432464647_ae39cfadd70d8d1ae878fcff26982251
p890
sa(dp891
g2
Vhttps://fbcdn-sphotos-f-a.akamaihd.net/hphotos-ak-xfp1/v/t1.0-9/s720x720/10451137_10154833149510434_1973713863483095996_n.jpg?oh=f079740ac2c64f992ec61d61b445aaec&oe=5564FF43&__gda__=1431334842_24eb529a63e22b6eeafefe6488458ef6
p892
sg4
VPeter Patapis8ef6
p893
sa(dp894
g2
Vhttps://scontent-b.xx.fbcdn.net/hphotos-xpa1/v/t1.0-9/s720x720/10429288_10154833149440434_3476418105846059927_n.jpg?oh=2f8e549e251e3c9a17fd31877816eabd&oe=55576503
p895
sg4
V10429288_10154833149440434_3476418105846059927_n.jpg?oh=2f8e549e251e3c9a17fd31877816eabd&oe=55576503
p896
sa(dp897
g2
Vhttps://fbcdn-sphotos-b-a.akamaihd.net/hphotos-ak-xpf1/v/t1.0-9/s720x720/10801968_10154833149365434_2624639378991177365_n.jpg?oh=9e19f2416f5b4f0b901c230a23efa24b&oe=554A23A2&__gda__=1432387508_4e680f283fc2fd2c8eb32897dc490007
p898
sg4
V10801968_10154833149365434_2624639378991177365_n.jpg?oh=9e19f2416f5b4f0b901c230a23efa24b&oe=554A23A2&__gda__=1432387508_4e680f283fc2fd2c8eb32897dc490007
p899
sa(dp900
g2
Vhttps://scontent-a.xx.fbcdn.net/hphotos-xpa1/v/t1.0-9/s720x720/10734213_10154833149315434_3164248836662324954_n.jpg?oh=9d4b149e2132b03140ee9d6644b552e0&oe=5569B4BB
p901
sg4
V10734213_10154833149315434_3164248836662324954_n.jpg?oh=9d4b149e2132b03140ee9d6644b552e0&oe=5569B4BB
p902
sa(dp903
g2
Vhttps://fbcdn-sphotos-e-a.akamaihd.net/hphotos-ak-xpa1/v/t1.0-9/s720x720/16156_10154833149270434_8284018757634847897_n.jpg?oh=a02be08dd1696b830ebbd3ce6173195f&oe=556A155B&__gda__=1432409996_4cb199be894c37c1e8ebf34651f1bc77
p904
sg4
V16156_10154833149270434_8284018757634847897_n.jpg?oh=a02be08dd1696b830ebbd3ce6173195f&oe=556A155B&__gda__=1432409996_4cb199be894c37c1e8ebf34651f1bc77
p905
sa(dp906
g2
Vhttps://fbcdn-sphotos-g-a.akamaihd.net/hphotos-ak-xpa1/v/t1.0-9/s720x720/10433140_10154833149175434_4996579307427610163_n.jpg?oh=376a6927693d8b072d1fa02b02c128ca&oe=555ACD82&__gda__=1432739965_b343b5289c762697d1603b49454459de
p907
sg4
V10433140_10154833149175434_4996579307427610163_n.jpg?oh=376a6927693d8b072d1fa02b02c128ca&oe=555ACD82&__gda__=1432739965_b343b5289c762697d1603b49454459de
p908
sa(dp909
g2
Vhttps://scontent-b.xx.fbcdn.net/hphotos-xfp1/v/t1.0-9/10443602_10154828576785434_5732600538794847919_n.jpg?oh=7a47ecde07873b82c90942c3dc4787a0&oe=55970A02
p910
sg4
V10443602_10154828576785434_5732600538794847919_n.jpg?oh=7a47ecde07873b82c90942c3dc4787a0&oe=55970A02
p911
sa(dp912
g2
Vhttps://scontent-a.xx.fbcdn.net/hphotos-xpf1/v/t1.0-9/s720x720/16668_10154819675205434_1809272756753515625_n.jpg?oh=9de82cce4a90cbca57399ca59f574326&oe=555DE211
p913
sg4
Vhahahaah good one Peter Patapis Izzy LibertiE211
p914
sa(dp915
g2
Vhttps://scontent-a.xx.fbcdn.net/hphotos-xfp1/v/t1.0-9/s720x720/1533887_10154817626500434_3165955242014630202_n.jpg?oh=02c359327d5e4c7904c803523919eb6d&oe=55500F45
p916
sg4
VGOV BALL 2014 RECAP FILM  CONVERGENCE httpyoutubenw7E54LhrRA ahhh take me back Helen Jiang0F45
p917
sa(dp918
g2
Vhttps://fbcdn-sphotos-a-a.akamaihd.net/hphotos-ak-xaf1/v/t1.0-9/s720x720/10460202_10154815860220434_8938404788288729373_n.jpg?oh=0d8bb98edf237e837b0f77cbd6a58ce3&oe=554FC778&__gda__=1432006285_ad219145465773a4fe3b61543342dc95
p919
sg4
V10460202_10154815860220434_8938404788288729373_n.jpg?oh=0d8bb98edf237e837b0f77cbd6a58ce3&oe=554FC778&__gda__=1432006285_ad219145465773a4fe3b61543342dc95
p920
sa(dp921
g2
Vhttps://fbcdn-sphotos-d-a.akamaihd.net/hphotos-ak-xap1/v/t1.0-9/p720x720/1383824_10154815860145434_7064717890834132864_n.jpg?oh=703587da840f89cc74ab7fd1fc29805f&oe=555A121A&__gda__=1432456994_cd35d9280b03293912a486ffdf187f2c
p922
sg4
V1383824_10154815860145434_7064717890834132864_n.jpg?oh=703587da840f89cc74ab7fd1fc29805f&oe=555A121A&__gda__=1432456994_cd35d9280b03293912a486ffdf187f2c
p923
sa(dp924
g2
Vhttps://scontent-b.xx.fbcdn.net/hphotos-xap1/v/t1.0-9/s720x720/10427332_10154815860070434_7528575634194003575_n.jpg?oh=7fa37cd4d7217069afb121a9e753804d&oe=5550143C
p925
sg4
V10427332_10154815860070434_7528575634194003575_n.jpg?oh=7fa37cd4d7217069afb121a9e753804d&oe=5550143C
p926
sa(dp927
g2
Vhttps://fbcdn-sphotos-h-a.akamaihd.net/hphotos-ak-xfp1/v/t1.0-9/s720x720/10527331_10154815860020434_7356407656164810880_n.jpg?oh=86ffbd32e2c2a1c428a259f179f3efe9&oe=556804B3&__gda__=1431427146_4796c62fdf27b7991cf5b2a616e3afc9
p928
sg4
V10527331_10154815860020434_7356407656164810880_n.jpg?oh=86ffbd32e2c2a1c428a259f179f3efe9&oe=556804B3&__gda__=1431427146_4796c62fdf27b7991cf5b2a616e3afc9
p929
sa(dp930
g2
Vhttps://fbcdn-sphotos-b-a.akamaihd.net/hphotos-ak-xfp1/v/t1.0-9/s720x720/10734255_10154815859960434_7094379152216322296_n.jpg?oh=852ad0c13ed500566f0ab2a1498a5a3f&oe=5559FC49&__gda__=1432267952_9dfd4c5a4d8a7a6a6b21fdb39eb7176d
p931
sg4
V10734255_10154815859960434_7094379152216322296_n.jpg?oh=852ad0c13ed500566f0ab2a1498a5a3f&oe=5559FC49&__gda__=1432267952_9dfd4c5a4d8a7a6a6b21fdb39eb7176d
p932
sa(dp933
g2
Vhttps://fbcdn-sphotos-c-a.akamaihd.net/hphotos-ak-xpa1/v/t1.0-9/s720x720/10519739_10154815859840434_5980507940751640987_n.jpg?oh=b0f5057883fd702ca13dd12c2db98337&oe=555375E9&__gda__=1431399702_a482acb49f56457e800b5c1484b50fc7
p934
sg4
V10519739_10154815859840434_5980507940751640987_n.jpg?oh=b0f5057883fd702ca13dd12c2db98337&oe=555375E9&__gda__=1431399702_a482acb49f56457e800b5c1484b50fc7
p935
sa(dp936
g2
Vhttps://scontent-a.xx.fbcdn.net/hphotos-xfp1/v/t1.0-9/s720x720/10428061_10154815859785434_525887824301626081_n.jpg?oh=21c229b179233596d442bc33be846cb5&oe=55939596
p937
sg4
V10428061_10154815859785434_525887824301626081_n.jpg?oh=21c229b179233596d442bc33be846cb5&oe=55939596
p938
sa(dp939
g2
Vhttps://scontent-a.xx.fbcdn.net/hphotos-xpf1/v/t1.0-9/s720x720/10422131_10154815859725434_1735295437799858637_n.jpg?oh=16bc928945520fd593e3278768a12895&oe=55562CB5
p940
sg4
V10422131_10154815859725434_1735295437799858637_n.jpg?oh=16bc928945520fd593e3278768a12895&oe=55562CB5
p941
sa(dp942
g2
Vhttps://fbcdn-sphotos-a-a.akamaihd.net/hphotos-ak-xfa1/v/t1.0-9/s720x720/1920082_10154815859670434_1290579534132035991_n.jpg?oh=5920d6ee8123db83f265897e5476c515&oe=555829BE&__gda__=1435646005_9145cb55fc6b0963fd8bd28c80e36337
p943
sg4
V1920082_10154815859670434_1290579534132035991_n.jpg?oh=5920d6ee8123db83f265897e5476c515&oe=555829BE&__gda__=1435646005_9145cb55fc6b0963fd8bd28c80e36337
p944
sa(dp945
g2
Vhttps://scontent-b.xx.fbcdn.net/hphotos-xpf1/v/t1.0-9/s720x720/10603499_10154815859625434_712720117747042770_n.jpg?oh=a1b2e02792e9e4bed217ccdc3838b007&oe=5559570E
p946
sg4
V10603499_10154815859625434_712720117747042770_n.jpg?oh=a1b2e02792e9e4bed217ccdc3838b007&oe=5559570E
p947
sa(dp948
g2
Vhttps://fbcdn-sphotos-f-a.akamaihd.net/hphotos-ak-xpa1/v/t1.0-9/s720x720/10348534_10154815859590434_7968632600313523233_n.jpg?oh=f70ccd9bd175a726a779169198e01583&oe=55578C38&__gda__=1432880839_e11455ddb179c8c96571d8c7c342c9b6
p949
sg4
V10348534_10154815859590434_7968632600313523233_n.jpg?oh=f70ccd9bd175a726a779169198e01583&oe=55578C38&__gda__=1432880839_e11455ddb179c8c96571d8c7c342c9b6
p950
sa(dp951
g2
Vhttps://scontent-b.xx.fbcdn.net/hphotos-xpf1/v/t1.0-9/s720x720/535913_10154815859550434_7941572035621995083_n.jpg?oh=85d4ae18896b2ac409b41efd08dab597&oe=555BCE3D
p952
sg4
V535913_10154815859550434_7941572035621995083_n.jpg?oh=85d4ae18896b2ac409b41efd08dab597&oe=555BCE3D
p953
sa(dp954
g2
Vhttps://fbcdn-sphotos-b-a.akamaihd.net/hphotos-ak-xpa1/v/t1.0-9/s720x720/10389223_10154815859495434_7249134713151107866_n.jpg?oh=f4f987da64a2723fe1b61b8ccce0e145&oe=555F7184&__gda__=1432501115_0affd5541f5b7d9bbf002559d7a5a627
p955
sg4
V10389223_10154815859495434_7249134713151107866_n.jpg?oh=f4f987da64a2723fe1b61b8ccce0e145&oe=555F7184&__gda__=1432501115_0affd5541f5b7d9bbf002559d7a5a627
p956
sa(dp957
g2
Vhttps://fbcdn-sphotos-e-a.akamaihd.net/hphotos-ak-xfa1/v/t1.0-9/s720x720/10801813_10154815859450434_7482419159734828870_n.jpg?oh=0e115a4a94c0fa44570798dd334ac569&oe=554D3E2D&__gda__=1431580019_4a6af46939c29d46d856d510b67352fd
p958
sg4
V10801813_10154815859450434_7482419159734828870_n.jpg?oh=0e115a4a94c0fa44570798dd334ac569&oe=554D3E2D&__gda__=1431580019_4a6af46939c29d46d856d510b67352fd
p959
sa(dp960
g2
Vhttps://scontent-a.xx.fbcdn.net/hphotos-xaf1/v/t1.0-9/s720x720/10689881_10154815859415434_4073415288687460083_n.jpg?oh=e2bb529dbb6aded05c751263cbe0f3b1&oe=5554AAD3
p961
sg4
V10689881_10154815859415434_4073415288687460083_n.jpg?oh=e2bb529dbb6aded05c751263cbe0f3b1&oe=5554AAD3
p962
sa(dp963
g2
Vhttps://scontent-b.xx.fbcdn.net/hphotos-xpf1/v/t1.0-9/s720x720/1794701_10154785540540434_8242588965722223272_n.jpg?oh=f0f3d1c80395d0d2f5bf4e2922f4b46f&oe=55938547
p964
sg4
V1794701_10154785540540434_8242588965722223272_n.jpg?oh=f0f3d1c80395d0d2f5bf4e2922f4b46f&oe=55938547
p965
sa(dp966
g2
Vhttps://scontent-b.xx.fbcdn.net/hphotos-xfp1/v/t1.0-9/p720x720/10271611_10154785540475434_8703932882250266122_n.jpg?oh=e6f4eafb0f5d220c01d71a22d3a96b8f&oe=555E34F9
p967
sg4
V10271611_10154785540475434_8703932882250266122_n.jpg?oh=e6f4eafb0f5d220c01d71a22d3a96b8f&oe=555E34F9
p968
sa(dp969
g2
Vhttps://fbcdn-sphotos-d-a.akamaihd.net/hphotos-ak-xfp1/v/t1.0-9/q82/s720x720/10731217_10154785540395434_5714452396401629376_n.jpg?oh=a72685c2bc6995b04b68d4e7ed421ac4&oe=554FB438&__gda__=1432202699_5f918d72abccf59a6e5cbd2dba3bf1dc
p970
sg4
V10731217_10154785540395434_5714452396401629376_n.jpg?oh=a72685c2bc6995b04b68d4e7ed421ac4&oe=554FB438&__gda__=1432202699_5f918d72abccf59a6e5cbd2dba3bf1dc
p971
sa(dp972
g2
Vhttps://fbcdn-sphotos-f-a.akamaihd.net/hphotos-ak-xpa1/v/t1.0-9/s720x720/63412_10154785540355434_492599651553103587_n.jpg?oh=f44c7dbef51ba902bc05d7216387137e&oe=556038C0&__gda__=1432707119_5fc9649dc375633dd99c89bf9ddbc632
p973
sg4
Vquidditch regionals its been realc632
p974
sa(dp975
g2
Vhttps://fbcdn-sphotos-a-a.akamaihd.net/hphotos-ak-xfa1/t31.0-8/s720x720/10708766_10154780644650434_37383439627288791_o.jpg
p976
sg4
V10708766_10154780644650434_37383439627288791_o.jpg
p977
sa(dp978
g2
Vhttps://fbcdn-sphotos-g-a.akamaihd.net/hphotos-ak-xfa1/t31.0-8/s720x720/10704370_10154780644240434_8142502375144737691_o.jpg
p979
sg4
V10704370_10154780644240434_8142502375144737691_o.jpg
p980
sa(dp981
g2
Vhttps://scontent-b.xx.fbcdn.net/hphotos-xfp1/v/t1.0-9/p180x540/1381633_10154780528875434_8815845288475238525_n.jpg?oh=04b239d918de21f72783d3fa817136ca&oe=5560F580
p982
sg4
V1381633_10154780528875434_8815845288475238525_n.jpg?oh=04b239d918de21f72783d3fa817136ca&oe=5560F580
p983
sa(dp984
g2
Vhttps://fbcdn-sphotos-b-a.akamaihd.net/hphotos-ak-xpf1/v/t1.0-9/q82/s720x720/1380498_10154780528825434_662330427845798412_n.jpg?oh=22defb48ebc023ec9e4ee98716298f35&oe=555056CE&__gda__=1431716568_a6c28ee1819feef31bb1fb2f34193ba8
p985
sg4
V1380498_10154780528825434_662330427845798412_n.jpg?oh=22defb48ebc023ec9e4ee98716298f35&oe=555056CE&__gda__=1431716568_a6c28ee1819feef31bb1fb2f34193ba8
p986
sa(dp987
g2
Vhttps://scontent-b.xx.fbcdn.net/hphotos-xap1/v/t1.0-9/s720x720/10624919_10154780528785434_8377927563577014798_n.jpg?oh=92e0d8f6a4cd1d22678a6a9c3a0a854b&oe=554C412A
p988
sg4
V10624919_10154780528785434_8377927563577014798_n.jpg?oh=92e0d8f6a4cd1d22678a6a9c3a0a854b&oe=554C412A
p989
sa(dp990
g2
Vhttps://scontent-b.xx.fbcdn.net/hphotos-xap1/v/t1.0-9/s720x720/10347569_10154780528725434_8007950565962654562_n.jpg?oh=83d1abc3920d543add14d659e2bf92df&oe=5562A580
p991
sg4
V10347569_10154780528725434_8007950565962654562_n.jpg?oh=83d1abc3920d543add14d659e2bf92df&oe=5562A580
p992
sa(dp993
g2
Vhttps://fbcdn-sphotos-g-a.akamaihd.net/hphotos-ak-xfa1/v/t1.0-9/s720x720/10314500_10154780528675434_4260537295937494540_n.jpg?oh=18716675a740a47dfc00f63f06a85953&oe=554A256E&__gda__=1431340592_6ba978cb9bea750b0cb1c04d5e27ff64
p994
sg4
V10314500_10154780528675434_4260537295937494540_n.jpg?oh=18716675a740a47dfc00f63f06a85953&oe=554A256E&__gda__=1431340592_6ba978cb9bea750b0cb1c04d5e27ff64
p995
sa(dp996
g2
Vhttps://fbcdn-sphotos-b-a.akamaihd.net/hphotos-ak-xpf1/v/t1.0-9/s720x720/13022_10154780528495434_533843150794105747_n.jpg?oh=5e95bff50830f537a1a2bd18b640c9c4&oe=5562B873&__gda__=1435690795_b393be0d81c13fc66e2acec67c292975
p997
sg4
V13022_10154780528495434_533843150794105747_n.jpg?oh=5e95bff50830f537a1a2bd18b640c9c4&oe=5562B873&__gda__=1435690795_b393be0d81c13fc66e2acec67c292975
p998
sa(dp999
g2
Vhttps://fbcdn-sphotos-a-a.akamaihd.net/hphotos-ak-xpf1/v/t1.0-9/s720x720/997071_10154780528440434_4996276833183192693_n.jpg?oh=24125249d81ee126b06b31656369b10c&oe=555C190D&__gda__=1431948464_c3dfdbdf4161c1e679b821b9d8cd190b
p1000
sg4
V997071_10154780528440434_4996276833183192693_n.jpg?oh=24125249d81ee126b06b31656369b10c&oe=555C190D&__gda__=1431948464_c3dfdbdf4161c1e679b821b9d8cd190b
p1001
sa(dp1002
g2
Vhttps://fbcdn-sphotos-g-a.akamaihd.net/hphotos-ak-xfp1/v/t1.0-9/s720x720/10360892_10154780528395434_4976070068312301863_n.jpg?oh=293648ab19a93cd57c5514edd1362f7d&oe=556523EA&__gda__=1431890707_c6a6bd4bc348a92351c38704b6af9882
p1003
sg4
V10360892_10154780528395434_4976070068312301863_n.jpg?oh=293648ab19a93cd57c5514edd1362f7d&oe=556523EA&__gda__=1431890707_c6a6bd4bc348a92351c38704b6af9882
p1004
sa(dp1005
g2
Vhttps://scontent-a.xx.fbcdn.net/hphotos-xpa1/v/t1.0-9/s720x720/1911759_10154780528345434_4069494584554776715_n.jpg?oh=04faeb7a534c7b02c2fbfea5581035ce&oe=5567F59A
p1006
sg4
V1911759_10154780528345434_4069494584554776715_n.jpg?oh=04faeb7a534c7b02c2fbfea5581035ce&oe=5567F59A
p1007
sa(dp1008
g2
Vhttps://fbcdn-sphotos-c-a.akamaihd.net/hphotos-ak-xpa1/v/t1.0-9/p720x720/1535418_10154778612480434_202945691838226260_n.jpg?oh=83dd644ce6c51392b81ee4e037001879&oe=55566DF0&__gda__=1432941078_6b4a42df01f50d190036e446fbe9fe00
p1009
sg4
V1535418_10154778612480434_202945691838226260_n.jpg?oh=83dd644ce6c51392b81ee4e037001879&oe=55566DF0&__gda__=1432941078_6b4a42df01f50d190036e446fbe9fe00
p1010
sa(dp1011
g2
Vhttps://fbcdn-sphotos-b-a.akamaihd.net/hphotos-ak-xfp1/v/t1.0-9/s720x720/10653806_10154778612440434_4002137757412093356_n.jpg?oh=be39de6a4b3b5823e2ff5d46cb814e09&oe=555B808F&__gda__=1431799926_1f0d4282c0cb6a58f4d636e5eacdd154
p1012
sg4
V10653806_10154778612440434_4002137757412093356_n.jpg?oh=be39de6a4b3b5823e2ff5d46cb814e09&oe=555B808F&__gda__=1431799926_1f0d4282c0cb6a58f4d636e5eacdd154
p1013
sa(dp1014
g2
Vhttps://fbcdn-sphotos-h-a.akamaihd.net/hphotos-ak-xpf1/v/t1.0-9/s720x720/544933_10154778612365434_671902172958367897_n.jpg?oh=3168998329257aa28ec03754827fb964&oe=5551F0BE&__gda__=1432456505_1fc2f665764237ebff1892b96bcac0d5
p1015
sg4
V544933_10154778612365434_671902172958367897_n.jpg?oh=3168998329257aa28ec03754827fb964&oe=5551F0BE&__gda__=1432456505_1fc2f665764237ebff1892b96bcac0d5
p1016
sa(dp1017
g2
Vhttps://fbcdn-sphotos-f-a.akamaihd.net/hphotos-ak-xap1/v/t1.0-9/q86/s720x720/10438139_10154778612330434_1201896546001663131_n.jpg?oh=b710c7fc0bb4cc8ce665200350069e05&oe=55921FA2&__gda__=1435870569_986807cc150b9ff6b188fbe8135bdd7f
p1018
sg4
V10438139_10154778612330434_1201896546001663131_n.jpg?oh=b710c7fc0bb4cc8ce665200350069e05&oe=55921FA2&__gda__=1435870569_986807cc150b9ff6b188fbe8135bdd7f
p1019
sa(dp1020
g2
Vhttps://scontent-b.xx.fbcdn.net/hphotos-xpa1/v/t1.0-9/p180x540/10325531_10154778612290434_7357905326588547276_n.jpg?oh=d98177a73bfad5242bb1f4b804b55b58&oe=55518B97
p1021
sg4
V10325531_10154778612290434_7357905326588547276_n.jpg?oh=d98177a73bfad5242bb1f4b804b55b58&oe=55518B97
p1022
sa(dp1023
g2
Vhttps://scontent-a.xx.fbcdn.net/hphotos-xap1/v/t1.0-9/s720x720/1508578_10154778612235434_8980454483160338513_n.jpg?oh=7c06a421f05d5d844b48d732d0a5d94b&oe=555800D9
p1024
sg4
V1508578_10154778612235434_8980454483160338513_n.jpg?oh=7c06a421f05d5d844b48d732d0a5d94b&oe=555800D9
p1025
sa(dp1026
g2
Vhttps://scontent-a.xx.fbcdn.net/hphotos-xpa1/v/t1.0-9/s720x720/10730109_10154778612180434_387054639661976408_n.jpg?oh=e3f670346158335e3006a56db48d700e&oe=5557E6A5
p1027
sg4
V10730109_10154778612180434_387054639661976408_n.jpg?oh=e3f670346158335e3006a56db48d700e&oe=5557E6A5
p1028
sa(dp1029
g2
Vhttps://scontent-b.xx.fbcdn.net/hphotos-xap1/v/t1.0-9/s720x720/10177292_10154775535900434_4018623841882927119_n.jpg?oh=3e8b801030491a3967575a57a903e8a0&oe=55597C3E
p1030
sg4
Vthe biggest squirrels i have ever seen pittsburgh7C3E
p1031
sa(dp1032
g2
Vhttps://fbcdn-sphotos-a-a.akamaihd.net/hphotos-ak-xfp1/v/t1.0-9/p720x720/10262034_10154774981360434_3774501867158186235_n.jpg?oh=442d8c57fe207853b6270576e397f956&oe=5569293E&__gda__=1431233991_b19593986fdda12d8be54f02c875e809
p1033
sg4
VCan you guess whos coming to town next week Find the answer at httpbitlyVmRYCU or just buye809
p1034
sa(dp1035
g2
Vhttps://fbcdn-sphotos-f-a.akamaihd.net/hphotos-ak-xfp1/v/t1.0-9/s720x720/560177_10154770051020434_1001830032971502787_n.jpg?oh=7fce9d53623c881a550533e9591a77ba&oe=555F9119&__gda__=1435892009_4d3e8fb13dc05487552b77abbb4d1d7e
p1036
sg4
V560177_10154770051020434_1001830032971502787_n.jpg?oh=7fce9d53623c881a550533e9591a77ba&oe=555F9119&__gda__=1435892009_4d3e8fb13dc05487552b77abbb4d1d7e
p1037
sa(dp1038
g2
Vhttps://fbcdn-sphotos-d-a.akamaihd.net/hphotos-ak-xpa1/v/t1.0-9/s720x720/1381353_10154770050905434_6869153426587612228_n.jpg?oh=91ce19c165281b287a84b7ba63176b6b&oe=55584A16&__gda__=1432253651_79837a0fef2e7aac7d2da4a832993fb5
p1039
sg4
Vselfie queen only 183fb5
p1040
sa(dp1041
g2
Vhttps://fbcdn-sphotos-c-a.akamaihd.net/hphotos-ak-xfp1/v/t1.0-9/s720x720/10576972_10154767698680434_1097001991607985532_n.jpg?oh=cd504dc0f6d9561d2487729085f91b05&oe=554AEE37&__gda__=1431635662_47cc6435d3c1ac3ad97add5f553a794a
p1042
sg4
V10576972_10154767698680434_1097001991607985532_n.jpg?oh=cd504dc0f6d9561d2487729085f91b05&oe=554AEE37&__gda__=1431635662_47cc6435d3c1ac3ad97add5f553a794a
p1043
sa(dp1044
g2
Vhttps://fbcdn-sphotos-e-a.akamaihd.net/hphotos-ak-xfa1/v/t1.0-9/s720x720/10629639_10154767698635434_8030048732763428216_n.jpg?oh=49d055f2d5a694345ccda32019c95005&oe=5568FF55&__gda__=1433032459_2cacd409946f5269ad3f3c89bd291984
p1045
sg4
V10629639_10154767698635434_8030048732763428216_n.jpg?oh=49d055f2d5a694345ccda32019c95005&oe=5568FF55&__gda__=1433032459_2cacd409946f5269ad3f3c89bd291984
p1046
sa(dp1047
g2
Vhttps://fbcdn-sphotos-g-a.akamaihd.net/hphotos-ak-xap1/v/t1.0-9/s720x720/10686880_10154767698570434_5221183991557193854_n.jpg?oh=639272e52ccc6e0c81311aef635cec20&oe=555925AB&__gda__=1432286736_a2085594649484c40e2b41537acb38a3
p1048
sg4
V10686880_10154767698570434_5221183991557193854_n.jpg?oh=639272e52ccc6e0c81311aef635cec20&oe=555925AB&__gda__=1432286736_a2085594649484c40e2b41537acb38a3
p1049
sa(dp1050
g2
Vhttps://scontent-a.xx.fbcdn.net/hphotos-xfp1/v/l/t1.0-9/s720x720/10482287_10154767698525434_3477749485571681252_n.jpg?oh=4a90f2b47cbdbdd6bd3ff7dc641c9c6c&oe=5563D436
p1051
sg4
V10482287_10154767698525434_3477749485571681252_n.jpg?oh=4a90f2b47cbdbdd6bd3ff7dc641c9c6c&oe=5563D436
p1052
sa(dp1053
g2
Vhttps://fbcdn-sphotos-d-a.akamaihd.net/hphotos-ak-xpf1/v/t1.0-9/s720x720/1901412_10154767698475434_7737377644628575364_n.jpg?oh=a95ccfbe9ca0c3f25c35c44ad4bd9279&oe=55544CA3&__gda__=1432098312_b0b207ac8bd55bf5d555579e8b3615c2
p1054
sg4
V1901412_10154767698475434_7737377644628575364_n.jpg?oh=a95ccfbe9ca0c3f25c35c44ad4bd9279&oe=55544CA3&__gda__=1432098312_b0b207ac8bd55bf5d555579e8b3615c2
p1055
sa(dp1056
g2
Vhttps://scontent-b.xx.fbcdn.net/hphotos-xfp1/v/t1.0-9/s720x720/150099_10154767698400434_6507929685569586411_n.jpg?oh=64ffb411f2acd95ff39bcafb20ee772d&oe=55667596
p1057
sg4
V150099_10154767698400434_6507929685569586411_n.jpg?oh=64ffb411f2acd95ff39bcafb20ee772d&oe=55667596
p1058
sa(dp1059
g2
Vhttps://scontent-b.xx.fbcdn.net/hphotos-xap1/v/t1.0-9/p480x480/1654419_10154767698345434_6880316799360351476_n.jpg?oh=6039e21fc9156c138b7b7cebea300068&oe=5563052D
p1060
sg4
V1654419_10154767698345434_6880316799360351476_n.jpg?oh=6039e21fc9156c138b7b7cebea300068&oe=5563052D
p1061
sa(dp1062
g2
Vhttps://fbcdn-sphotos-b-a.akamaihd.net/hphotos-ak-xap1/v/t1.0-9/p480x480/1508193_10154767698320434_7210910450735415779_n.jpg?oh=8edae23e809d201fd5c77c012038e357&oe=5568ECD6&__gda__=1432516846_d969b2e807504393435918a63b7e1bc6
p1063
sg4
V1508193_10154767698320434_7210910450735415779_n.jpg?oh=8edae23e809d201fd5c77c012038e357&oe=5568ECD6&__gda__=1432516846_d969b2e807504393435918a63b7e1bc6
p1064
sa(dp1065
g2
Vhttps://fbcdn-sphotos-e-a.akamaihd.net/hphotos-ak-xfa1/v/t1.0-9/s720x720/1391720_10154767698280434_5846838506748675898_n.jpg?oh=69ff1ff264349bda7e1dc308a24d0603&oe=555E31F5&__gda__=1435683710_ac27ab9eedaeb26babf2baa8236c7283
p1066
sg4
V1391720_10154767698280434_5846838506748675898_n.jpg?oh=69ff1ff264349bda7e1dc308a24d0603&oe=555E31F5&__gda__=1435683710_ac27ab9eedaeb26babf2baa8236c7283
p1067
sa(dp1068
g2
Vhttps://scontent-a.xx.fbcdn.net/hphotos-xaf1/t31.0-8/s720x720/1932722_10154767665520434_5739040315024436829_o.jpg
p1069
sg4
Vincredible.jpg
p1070
sa(dp1071
g2
Vhttps://scontent-b.xx.fbcdn.net/hphotos-xap1/v/t1.0-9/s720x720/10501656_10154757800210434_2341952232570204964_n.jpg?oh=5b6daa8f9a85b68309f87378ce485fb9&oe=55923D79
p1072
sg4
Vgood3D79
p1073
sa(dp1074
g2
Vhttps://scontent-b.xx.fbcdn.net/hphotos-xap1/v/t1.0-9/s720x720/10410630_10154747824090434_5033132593950141659_n.jpg?oh=9ea97c3bdd909e956216a1d79ce5797d&oe=55682C48
p1075
sg4
V10410630_10154747824090434_5033132593950141659_n.jpg?oh=9ea97c3bdd909e956216a1d79ce5797d&oe=55682C48
p1076
sa(dp1077
g2
Vhttps://fbcdn-sphotos-c-a.akamaihd.net/hphotos-ak-xaf1/v/t1.0-9/q88/s720x720/10703951_10154747824020434_1164778681978353698_n.jpg?oh=41ac1379b2f677d92ffc022c60d1274e&oe=5548A60D&__gda__=1431622450_fbf3e3e3fde272f9c27f19cc4975576c
p1078
sg4
V10703951_10154747824020434_1164778681978353698_n.jpg?oh=41ac1379b2f677d92ffc022c60d1274e&oe=5548A60D&__gda__=1431622450_fbf3e3e3fde272f9c27f19cc4975576c
p1079
sa(dp1080
g2
Vhttps://fbcdn-sphotos-e-a.akamaihd.net/hphotos-ak-xpa1/v/t1.0-9/s720x720/10429240_10154747823950434_1137526524461390600_n.jpg?oh=75010940a7d1a2d2a707f3dc4b8e2fdf&oe=555C9528&__gda__=1430931927_f2c7a38499ba7e53d44c352169798800
p1081
sg4
V10429240_10154747823950434_1137526524461390600_n.jpg?oh=75010940a7d1a2d2a707f3dc4b8e2fdf&oe=555C9528&__gda__=1430931927_f2c7a38499ba7e53d44c352169798800
p1082
sa(dp1083
g2
Vhttps://fbcdn-sphotos-g-a.akamaihd.net/hphotos-ak-xap1/v/t1.0-9/s720x720/10610877_10154747823905434_3080696597254025866_n.jpg?oh=e4c25bf295e44e19c61625e4ab93892b&oe=5551FA3B&__gda__=1431490944_81b45118922bc654befb73e3f90a216d
p1084
sg4
V10610877_10154747823905434_3080696597254025866_n.jpg?oh=e4c25bf295e44e19c61625e4ab93892b&oe=5551FA3B&__gda__=1431490944_81b45118922bc654befb73e3f90a216d
p1085
sa(dp1086
g2
Vhttps://fbcdn-sphotos-a-a.akamaihd.net/hphotos-ak-xfa1/v/t1.0-9/s720x720/10603660_10154747823865434_8614746972742657423_n.jpg?oh=38562e265fca8a1aea0319a161f1a63d&oe=554D7888&__gda__=1432380630_94c03305618b467be57adb61dcf5b87b
p1087
sg4
V10603660_10154747823865434_8614746972742657423_n.jpg?oh=38562e265fca8a1aea0319a161f1a63d&oe=554D7888&__gda__=1432380630_94c03305618b467be57adb61dcf5b87b
p1088
sa(dp1089
g2
Vhttps://scontent-a.xx.fbcdn.net/hphotos-xfp1/v/t1.0-9/s720x720/10580152_10154747823825434_403210480805545509_n.jpg?oh=2b61bb4ca1562146e21b8802017b347e&oe=554DEAB9
p1090
sg4
V10580152_10154747823825434_403210480805545509_n.jpg?oh=2b61bb4ca1562146e21b8802017b347e&oe=554DEAB9
p1091
sa(dp1092
g2
Vhttps://scontent-a.xx.fbcdn.net/hphotos-xfp1/v/t1.0-9/s720x720/10334364_10154747823765434_5397501272349109515_n.jpg?oh=7b6637b9be73b84ed75641368b3b95e7&oe=559287E5
p1093
sg4
V10334364_10154747823765434_5397501272349109515_n.jpg?oh=7b6637b9be73b84ed75641368b3b95e7&oe=559287E5
p1094
sa(dp1095
g2
Vhttps://fbcdn-sphotos-f-a.akamaihd.net/hphotos-ak-xpa1/v/t1.0-9/s720x720/524118_10154747823720434_3823374460744607092_n.jpg?oh=a65f3f72fc2783520a64be621637cac7&oe=55564B45&__gda__=1432165283_e3321375e9ec1586fbef74e323d989f1
p1096
sg4
V524118_10154747823720434_3823374460744607092_n.jpg?oh=a65f3f72fc2783520a64be621637cac7&oe=55564B45&__gda__=1432165283_e3321375e9ec1586fbef74e323d989f1
p1097
sa(dp1098
g2
Vhttps://fbcdn-sphotos-d-a.akamaihd.net/hphotos-ak-xap1/v/t1.0-9/s720x720/10690125_10154747823660434_8355240538745052768_n.jpg?oh=ad2e836e2d2c24d4eb3cbbf6fc7e7097&oe=5564D1A7&__gda__=1432829212_f8f554fb9d1a05095119265de544e40a
p1099
sg4
V10690125_10154747823660434_8355240538745052768_n.jpg?oh=ad2e836e2d2c24d4eb3cbbf6fc7e7097&oe=5564D1A7&__gda__=1432829212_f8f554fb9d1a05095119265de544e40a
p1100
sa(dp1101
g2
Vhttps://scontent-b.xx.fbcdn.net/hphotos-xfp1/v/t1.0-9/s720x720/10730925_10154740109150434_9014755445100174933_n.jpg?oh=910b26d762a042dd69a725e52af09157&oe=55934DD4
p1102
sg4
Vsame4DD4
p1103
sa(dp1104
g2
Vhttps://scontent-b.xx.fbcdn.net/hphotos-xpf1/v/t1.0-9/s720x720/10711079_10154739685645434_2887983855186491347_n.jpg?oh=d5750ba4f652ac2443e98bc029bdb368&oe=554C97BF
p1105
sg4
V10711079_10154739685645434_2887983855186491347_n.jpg?oh=d5750ba4f652ac2443e98bc029bdb368&oe=554C97BF
p1106
sa(dp1107
g2
Vhttps://fbcdn-sphotos-e-a.akamaihd.net/hphotos-ak-xfp1/v/t1.0-9/s720x720/1940008_10154739685595434_7442225562114883917_n.jpg?oh=c9794d9966149b9d906d1cab24f965e5&oe=554CC596&__gda__=1432870471_6e86702f40a440d0eb673ed719b16423
p1108
sg4
V1940008_10154739685595434_7442225562114883917_n.jpg?oh=c9794d9966149b9d906d1cab24f965e5&oe=554CC596&__gda__=1432870471_6e86702f40a440d0eb673ed719b16423
p1109
sa(dp1110
g2
Vhttps://scontent-a.xx.fbcdn.net/hphotos-xfp1/v/t1.0-9/s720x720/10387224_10154730519970434_1861903733165508558_n.jpg?oh=c8d594b1e563071f3b25b61beb8ae91a&oe=5569A6F1
p1111
sg4
V10387224_10154730519970434_1861903733165508558_n.jpg?oh=c8d594b1e563071f3b25b61beb8ae91a&oe=5569A6F1
p1112
sa(dp1113
g2
Vhttps://fbcdn-sphotos-d-a.akamaihd.net/hphotos-ak-xpa1/v/t1.0-9/s720x720/10734024_10154730519790434_2878644505355425749_n.jpg?oh=0324d1bf6affa2e89ef19afee62ff5fa&oe=5553E057&__gda__=1432155816_4ee3a1124012ca017ac1b1579b75cb81
p1114
sg4
V10734024_10154730519790434_2878644505355425749_n.jpg?oh=0324d1bf6affa2e89ef19afee62ff5fa&oe=5553E057&__gda__=1432155816_4ee3a1124012ca017ac1b1579b75cb81
p1115
sa(dp1116
g2
Vhttps://fbcdn-sphotos-f-a.akamaihd.net/hphotos-ak-xpa1/v/t1.0-9/s720x720/10659359_10154730519695434_845361985142870442_n.jpg?oh=609d6a3eab0a394f532c29ec64626ca9&oe=555CBCAE&__gda__=1435690859_dfbd0f36e3d503cca02551246441c386
p1117
sg4
V10659359_10154730519695434_845361985142870442_n.jpg?oh=609d6a3eab0a394f532c29ec64626ca9&oe=555CBCAE&__gda__=1435690859_dfbd0f36e3d503cca02551246441c386
p1118
sa(dp1119
g2
Vhttps://scontent-a.xx.fbcdn.net/hphotos-xap1/v/t1.0-9/s720x720/1457669_10154730519590434_5962089591181777219_n.jpg?oh=5bf8866741f9ebfd2c2576c58c61750c&oe=555EDA26
p1120
sg4
V1457669_10154730519590434_5962089591181777219_n.jpg?oh=5bf8866741f9ebfd2c2576c58c61750c&oe=555EDA26
p1121
sa(dp1122
g2
Vhttps://fbcdn-sphotos-a-a.akamaihd.net/hphotos-ak-xap1/v/t1.0-9/s720x720/1382229_10154730519560434_4763816874457905120_n.jpg?oh=65922754327bad02f63929e189491349&oe=5559AF65&__gda__=1432485981_e0306feb7359d519f0b11a6723dc4047
p1123
sg4
V1382229_10154730519560434_4763816874457905120_n.jpg?oh=65922754327bad02f63929e189491349&oe=5559AF65&__gda__=1432485981_e0306feb7359d519f0b11a6723dc4047
p1124
sa(dp1125
g2
Vhttps://scontent-a.xx.fbcdn.net/hphotos-xpf1/v/t1.0-9/s720x720/1912196_10154730519515434_6912257915726425884_n.jpg?oh=8b9a29b81b84d459c10f14eabc196f71&oe=555E9127
p1126
sg4
V1912196_10154730519515434_6912257915726425884_n.jpg?oh=8b9a29b81b84d459c10f14eabc196f71&oe=555E9127
p1127
sa(dp1128
g2
Vhttps://scontent-b.xx.fbcdn.net/hphotos-xfp1/v/t1.0-9/s720x720/10580073_10154730519455434_6672860704107858169_n.jpg?oh=fbcb7321d1d11012d1439000afa7f110&oe=554D52E6
p1129
sg4
V10580073_10154730519455434_6672860704107858169_n.jpg?oh=fbcb7321d1d11012d1439000afa7f110&oe=554D52E6
p1130
sa(dp1131
g2
Vhttps://fbcdn-sphotos-d-a.akamaihd.net/hphotos-ak-xpf1/v/t1.0-9/q84/p480x480/67242_10154730519415434_3377399558270188478_n.jpg?oh=0c9a5538cc52c28febeab45e2f8ab13d&oe=55925D3C&__gda__=1432756148_5d4dbe48b9ea214807f4db43a9f99839
p1132
sg4
V67242_10154730519415434_3377399558270188478_n.jpg?oh=0c9a5538cc52c28febeab45e2f8ab13d&oe=55925D3C&__gda__=1432756148_5d4dbe48b9ea214807f4db43a9f99839
p1133
sa(dp1134
g2
Vhttps://scontent-a.xx.fbcdn.net/hphotos-xfp1/v/t1.0-9/s720x720/10445521_10154730519285434_4616425209634329398_n.jpg?oh=7005efc7a705ade38fa90db3e715980a&oe=55490E6A
p1135
sg4
V10445521_10154730519285434_4616425209634329398_n.jpg?oh=7005efc7a705ade38fa90db3e715980a&oe=55490E6A
p1136
sa(dp1137
g2
Vhttps://fbcdn-sphotos-c-a.akamaihd.net/hphotos-ak-xfa1/v/t1.0-9/s720x720/10469911_10154730519230434_5919637553454568775_n.jpg?oh=5d58ef4f0b3128192eb0a8d4641dea95&oe=55676CC9&__gda__=1431123095_86872a0a8b2623f3ec9eb5fe039acd5f
p1138
sg4
V10469911_10154730519230434_5919637553454568775_n.jpg?oh=5d58ef4f0b3128192eb0a8d4641dea95&oe=55676CC9&__gda__=1431123095_86872a0a8b2623f3ec9eb5fe039acd5f
p1139
sa(dp1140
g2
Vhttps://fbcdn-sphotos-d-a.akamaihd.net/hphotos-ak-xpf1/v/t1.0-9/s720x720/10408674_10154730519185434_5457055529586676617_n.jpg?oh=a8214ff19796e092deaf26ea27cf4efa&oe=555E6113&__gda__=1431785221_4e8373e837c673451d4c55e087192be8
p1141
sg4
V10408674_10154730519185434_5457055529586676617_n.jpg?oh=a8214ff19796e092deaf26ea27cf4efa&oe=555E6113&__gda__=1431785221_4e8373e837c673451d4c55e087192be8
p1142
sa(dp1143
g2
Vhttps://scontent-b.xx.fbcdn.net/hphotos-xpf1/v/t1.0-9/s720x720/10647174_10154730519150434_8066639336907851487_n.jpg?oh=58d7e884b9cb84cbe6f20d53fe6d2ffb&oe=5594B5F1
p1144
sg4
V10647174_10154730519150434_8066639336907851487_n.jpg?oh=58d7e884b9cb84cbe6f20d53fe6d2ffb&oe=5594B5F1
p1145
sa(dp1146
g2
Vhttps://fbcdn-sphotos-h-a.akamaihd.net/hphotos-ak-xpa1/v/t1.0-9/s720x720/10347645_10154730519065434_2625907790821591381_n.jpg?oh=3b778d921fd0ec3bc44dec2758bd1abf&oe=554F7C97&__gda__=1431118696_2fa710d0269c61d9024a706ca4fe8f3f
p1147
sg4
V10347645_10154730519065434_2625907790821591381_n.jpg?oh=3b778d921fd0ec3bc44dec2758bd1abf&oe=554F7C97&__gda__=1431118696_2fa710d0269c61d9024a706ca4fe8f3f
p1148
sa(dp1149
g2
Vhttps://scontent-b.xx.fbcdn.net/hphotos-xpf1/v/t1.0-9/s720x720/10557351_10154730519025434_1031399172111684966_n.jpg?oh=8ea8477a634d58ca56e8e21853adb539&oe=555ABE98
p1150
sg4
V10557351_10154730519025434_1031399172111684966_n.jpg?oh=8ea8477a634d58ca56e8e21853adb539&oe=555ABE98
p1151
sa(dp1152
g2
Vhttps://scontent-a.xx.fbcdn.net/hphotos-xpa1/v/t1.0-9/s720x720/10404308_10154730518975434_3082497131234771386_n.jpg?oh=9fd8c838eaca5bc8a657de5f2a96d4dc&oe=5548F50F
p1153
sg4
V10404308_10154730518975434_3082497131234771386_n.jpg?oh=9fd8c838eaca5bc8a657de5f2a96d4dc&oe=5548F50F
p1154
sa(dp1155
g2
Vhttps://fbcdn-sphotos-e-a.akamaihd.net/hphotos-ak-xfp1/v/t1.0-9/s720x720/10628481_10154730518935434_2189120601429045762_n.jpg?oh=5d012757edbc0de80b5c7998422e0a14&oe=55948F69&__gda__=1431608976_abdfd79e7f4f6e21b9f2b65b6ce202e8
p1156
sg4
V10628481_10154730518935434_2189120601429045762_n.jpg?oh=5d012757edbc0de80b5c7998422e0a14&oe=55948F69&__gda__=1431608976_abdfd79e7f4f6e21b9f2b65b6ce202e8
p1157
sa(dp1158
g2
Vhttps://fbcdn-sphotos-g-a.akamaihd.net/hphotos-ak-xfa1/v/t1.0-9/s720x720/10615338_10154730518885434_6737950408304815860_n.jpg?oh=acd2ca4fa04a4bcf7acc0b94b641c3fb&oe=55518F7A&__gda__=1430822692_a225d5bc6402d3891d10fd661c56c0db
p1159
sg4
V10615338_10154730518885434_6737950408304815860_n.jpg?oh=acd2ca4fa04a4bcf7acc0b94b641c3fb&oe=55518F7A&__gda__=1430822692_a225d5bc6402d3891d10fd661c56c0db
p1160
sa(dp1161
g2
Vhttps://fbcdn-sphotos-a-a.akamaihd.net/hphotos-ak-xap1/v/t1.0-9/s720x720/1554490_10154730518835434_6634566323694710337_n.jpg?oh=4aaf5ea39617a92347c36bc2d3e66210&oe=5553DB1E&__gda__=1432528166_ed05437767b122e47d47ba52a26f63d3
p1162
sg4
V1554490_10154730518835434_6634566323694710337_n.jpg?oh=4aaf5ea39617a92347c36bc2d3e66210&oe=5553DB1E&__gda__=1432528166_ed05437767b122e47d47ba52a26f63d3
p1163
sa(dp1164
g2
Vhttps://fbcdn-sphotos-f-a.akamaihd.net/hphotos-ak-xap1/v/t1.0-9/s720x720/10015156_10154730518780434_1254715441102469244_n.jpg?oh=0f2d30fe7527eab59c7c80ba21ffcb0a&oe=554B17C3&__gda__=1431124088_f39d251d17566d21a9c7304fe6e9d714
p1165
sg4
V10015156_10154730518780434_1254715441102469244_n.jpg?oh=0f2d30fe7527eab59c7c80ba21ffcb0a&oe=554B17C3&__gda__=1431124088_f39d251d17566d21a9c7304fe6e9d714
p1166
sa(dp1167
g2
Vhttps://fbcdn-sphotos-d-a.akamaihd.net/hphotos-ak-xfp1/v/t1.0-9/s720x720/10690220_10154730518700434_9109235020200426913_n.jpg?oh=4a924c7e778e76fd5bae333140b11953&oe=554C9244&__gda__=1432702653_b22f0e0b91a71df823dc939e300aa959
p1168
sg4
V10690220_10154730518700434_9109235020200426913_n.jpg?oh=4a924c7e778e76fd5bae333140b11953&oe=554C9244&__gda__=1432702653_b22f0e0b91a71df823dc939e300aa959
p1169
sa(dp1170
g2
Vhttps://fbcdn-sphotos-c-a.akamaihd.net/hphotos-ak-xpf1/v/t1.0-9/s720x720/10447849_10154730518600434_8483499778152175615_n.jpg?oh=fc0e5742df00b8f65ea9e9b8389e1be6&oe=5550F776&__gda__=1431565152_22f36da699fccd6cc2b63c7844e7ee05
p1171
sg4
V10447849_10154730518600434_8483499778152175615_n.jpg?oh=fc0e5742df00b8f65ea9e9b8389e1be6&oe=5550F776&__gda__=1431565152_22f36da699fccd6cc2b63c7844e7ee05
p1172
sa(dp1173
g2
Vhttps://fbcdn-sphotos-e-a.akamaihd.net/hphotos-ak-xfp1/v/t1.0-9/s720x720/1901974_10154730518520434_2942139926698168053_n.jpg?oh=a6dbda031f38c378e7bbbf5761515165&oe=5596A600&__gda__=1431988945_4c8aa1e16aa663428da89fe5aaa17442
p1174
sg4
Vthank u adella7442
p1175
sa(dp1176
g2
Vhttps://fbcdn-sphotos-g-a.akamaihd.net/hphotos-ak-xpa1/v/t1.0-9/s720x720/10609606_10154730518480434_5741526043910673135_n.jpg?oh=70924d7cc9b5106f130c00c17d8c82ea&oe=55953D56&__gda__=1431661737_779c3df4c5238f9238efbdc3b0de2e79
p1177
sg4
VPeter Patapis tbt root hill2e79
p1178
sa(dp1179
g2
Vhttps://fbcdn-sphotos-a-a.akamaihd.net/hphotos-ak-xpa1/v/t1.0-9/s720x720/1891062_10154730518455434_3675826139247873125_n.jpg?oh=0a17dfb413cbd8a402f1498691206c9f&oe=5562155B&__gda__=1432465822_57bb062aaad6aea9289c692bcc11846c
p1180
sg4
V1891062_10154730518455434_3675826139247873125_n.jpg?oh=0a17dfb413cbd8a402f1498691206c9f&oe=5562155B&__gda__=1432465822_57bb062aaad6aea9289c692bcc11846c
p1181
sa(dp1182
g2
Vhttps://fbcdn-sphotos-d-a.akamaihd.net/hphotos-ak-xfp1/v/t1.0-9/q82/p480x480/1891207_10154730518385434_7720801758701982751_n.jpg?oh=e188e11e520ad793f4016bb5a77057d4&oe=555C8A4F&__gda__=1432074207_e190cdf60e5b1ed037429fb7f5259571
p1183
sg4
V1891207_10154730518385434_7720801758701982751_n.jpg?oh=e188e11e520ad793f4016bb5a77057d4&oe=555C8A4F&__gda__=1432074207_e190cdf60e5b1ed037429fb7f5259571
p1184
sa(dp1185
g2
Vhttps://scontent-b.xx.fbcdn.net/hphotos-xfp1/v/t1.0-9/s720x720/10336838_10154730518350434_889779388107837273_n.jpg?oh=a4fbb9f22a069b00b61fe572e773861e&oe=555DC213
p1186
sg4
V10336838_10154730518350434_889779388107837273_n.jpg?oh=a4fbb9f22a069b00b61fe572e773861e&oe=555DC213
p1187
sa(dp1188
g2
Vhttps://fbcdn-sphotos-h-a.akamaihd.net/hphotos-ak-xfp1/v/t1.0-9/s720x720/10703617_10154730518280434_1955623690621873098_n.jpg?oh=8179ad97f08dccd31e6bb0abc16180ee&oe=55609335&__gda__=1431392716_fe00ed621ccf6d8df9e8ac24a76bdc0d
p1189
sg4
V10703617_10154730518280434_1955623690621873098_n.jpg?oh=8179ad97f08dccd31e6bb0abc16180ee&oe=55609335&__gda__=1431392716_fe00ed621ccf6d8df9e8ac24a76bdc0d
p1190
sa(dp1191
g2
Vhttps://fbcdn-sphotos-b-a.akamaihd.net/hphotos-ak-xap1/v/t1.0-9/s720x720/10403311_10154730518230434_2881193992806910213_n.jpg?oh=a48ab0a7851687ec2ca0558259420c9c&oe=556A295E&__gda__=1432394469_e84a7caff6fccb05dbe232b3e88b3df0
p1192
sg4
V10403311_10154730518230434_2881193992806910213_n.jpg?oh=a48ab0a7851687ec2ca0558259420c9c&oe=556A295E&__gda__=1432394469_e84a7caff6fccb05dbe232b3e88b3df0
p1193
sa(dp1194
g2
Vhttps://scontent-a.xx.fbcdn.net/hphotos-xap1/v/t1.0-9/s720x720/10458593_10154730518185434_8865154632583456531_n.jpg?oh=68926ad12a6e213e876736545eb353d8&oe=5561960F
p1195
sg4
Vthe saddest of all hashtags960F
p1196
sa(dp1197
g2
Vhttps://fbcdn-sphotos-a-a.akamaihd.net/hphotos-ak-xfp1/v/t1.0-9/p720x720/1897748_10154730518125434_6137079003417086055_n.jpg?oh=191d52d7f10dca3810aa6992a1b6a99a&oe=5563E510&__gda__=1431423425_35e69a2e0f9b0baf87417dd34cf220fa
p1198
sg4
V1897748_10154730518125434_6137079003417086055_n.jpg?oh=191d52d7f10dca3810aa6992a1b6a99a&oe=5563E510&__gda__=1431423425_35e69a2e0f9b0baf87417dd34cf220fa
p1199
sa(dp1200
g2
Vhttps://fbcdn-sphotos-b-a.akamaihd.net/hphotos-ak-xpa1/v/t1.0-9/p720x720/10377428_10154730518010434_3795610027070714355_n.jpg?oh=9df605de9a3dad8222e37f078d1f9122&oe=5568439E&__gda__=1435921761_49df44dff9310268aead785a01770363
p1201
sg4
V10377428_10154730518010434_3795610027070714355_n.jpg?oh=9df605de9a3dad8222e37f078d1f9122&oe=5568439E&__gda__=1435921761_49df44dff9310268aead785a01770363
p1202
sa(dp1203
g2
Vhttps://scontent-b.xx.fbcdn.net/hphotos-xap1/v/t1.0-9/s720x720/10153171_10154730517955434_7137226645173946710_n.jpg?oh=881f83bf69a42d62ca706d7253f269a4&oe=555C3F42
p1204
sg4
V10153171_10154730517955434_7137226645173946710_n.jpg?oh=881f83bf69a42d62ca706d7253f269a4&oe=555C3F42
p1205
sa(dp1206
g2
Vhttps://fbcdn-sphotos-f-a.akamaihd.net/hphotos-ak-xap1/v/t1.0-9/s720x720/10645107_10154721154650434_8547497827895720257_n.jpg?oh=2e1c0cbe9c1d56573eca0b829bc06467&oe=555DEBAB&__gda__=1431273744_68bf523e1a35bc34ed101ec15e589ed8
p1207
sg4
V10645107_10154721154650434_8547497827895720257_n.jpg?oh=2e1c0cbe9c1d56573eca0b829bc06467&oe=555DEBAB&__gda__=1431273744_68bf523e1a35bc34ed101ec15e589ed8
p1208
sa(dp1209
g2
Vhttps://scontent-b.xx.fbcdn.net/hphotos-xpf1/v/t1.0-9/s720x720/7592_10154721153885434_7241612219312506623_n.jpg?oh=d2b274f1f8c8c2c74d3bf75fe6781d21&oe=5555EDB1
p1210
sg4
V7592_10154721153885434_7241612219312506623_n.jpg?oh=d2b274f1f8c8c2c74d3bf75fe6781d21&oe=5555EDB1
p1211
sa(dp1212
g2
Vhttps://fbcdn-sphotos-e-a.akamaihd.net/hphotos-ak-xaf1/v/t1.0-9/s720x720/10349063_10154721006370434_6029961036992538499_n.jpg?oh=ad7eca955e532b7650bb5ae5bd4342cd&oe=554DD57C&__gda__=1433016457_f9a809ebf7ec98bac0cb0b6b8edda793
p1213
sg4
V10349063_10154721006370434_6029961036992538499_n.jpg?oh=ad7eca955e532b7650bb5ae5bd4342cd&oe=554DD57C&__gda__=1433016457_f9a809ebf7ec98bac0cb0b6b8edda793
p1214
sa(dp1215
g2
Vhttps://scontent-a.xx.fbcdn.net/hphotos-xfp1/v/t1.0-9/s720x720/995634_10154706479915434_499153037443022280_n.jpg?oh=6582f40df4fb7b54bf4a9927ca84cce8&oe=555A4550
p1216
sg4
V995634_10154706479915434_499153037443022280_n.jpg?oh=6582f40df4fb7b54bf4a9927ca84cce8&oe=555A4550
p1217
sa(dp1218
g2
Vhttps://scontent-b.xx.fbcdn.net/hphotos-xpa1/v/t1.0-9/s720x720/10665073_10154706479855434_4200170012271769008_n.jpg?oh=8fd9fc52fb7cdef1fb8e2850c1419c51&oe=555A7D6B
p1219
sg4
V10665073_10154706479855434_4200170012271769008_n.jpg?oh=8fd9fc52fb7cdef1fb8e2850c1419c51&oe=555A7D6B
p1220
sa(dp1221
g2
Vhttps://fbcdn-sphotos-b-a.akamaihd.net/hphotos-ak-xpf1/v/t1.0-9/q81/s720x720/10629709_10154706479780434_8986059545201504071_n.jpg?oh=df1ebe7b2505ea15f1c5d262823cdd96&oe=555AFF4E&__gda__=1432430157_db1bfbc897d9d5090a3b9b40c73e2109
p1222
sg4
V10629709_10154706479780434_8986059545201504071_n.jpg?oh=df1ebe7b2505ea15f1c5d262823cdd96&oe=555AFF4E&__gda__=1432430157_db1bfbc897d9d5090a3b9b40c73e2109
p1223
sa(dp1224
g2
Vhttps://scontent-a.xx.fbcdn.net/hphotos-xpa1/v/t1.0-9/q81/s720x720/10711066_10154706479715434_9190214173169659530_n.jpg?oh=65297cff30f49edd65cb2d6421f0e156&oe=556131B3
p1225
sg4
V10711066_10154706479715434_9190214173169659530_n.jpg?oh=65297cff30f49edd65cb2d6421f0e156&oe=556131B3
p1226
sa(dp1227
g2
Vhttps://fbcdn-sphotos-g-a.akamaihd.net/hphotos-ak-xpa1/v/t1.0-9/s720x720/10409715_10154706479660434_5402913819828123925_n.jpg?oh=cb041174fa612104d406bf6820ba7448&oe=554A6601&__gda__=1431235326_e09fdea80d8c96156b226999f3c243c3
p1228
sg4
V10409715_10154706479660434_5402913819828123925_n.jpg?oh=cb041174fa612104d406bf6820ba7448&oe=554A6601&__gda__=1431235326_e09fdea80d8c96156b226999f3c243c3
p1229
sa(dp1230
g2
Vhttps://fbcdn-sphotos-e-a.akamaihd.net/hphotos-ak-xaf1/v/t1.0-9/s720x720/10628029_10154703931515434_3889093716768919703_n.jpg?oh=1afd6c5d83f4725280466fa91017fe8a&oe=5596F902&__gda__=1432645623_669e87f37d8019dc9ad9617f077d8ad4
p1231
sg4
V10628029_10154703931515434_3889093716768919703_n.jpg?oh=1afd6c5d83f4725280466fa91017fe8a&oe=5596F902&__gda__=1432645623_669e87f37d8019dc9ad9617f077d8ad4
p1232
sa(dp1233
g2
Vhttps://scontent-a.xx.fbcdn.net/hphotos-xfa1/t31.0-8/q86/s720x720/1618268_10154703931330434_9179006563952988240_o.jpg
p1234
sg4
V1618268_10154703931330434_9179006563952988240_o.jpg
p1235
sa(dp1236
g2
Vhttps://fbcdn-sphotos-h-a.akamaihd.net/hphotos-ak-xpf1/v/t1.0-9/q83/s720x720/10003447_10154699194285434_5941752867491037676_n.jpg?oh=1bbfb149844c56d5be93e03834357c52&oe=554EF48E&__gda__=1432287629_fd1d29ea66e95dbb2973ae474ba3d27e
p1237
sg4
V10003447_10154699194285434_5941752867491037676_n.jpg?oh=1bbfb149844c56d5be93e03834357c52&oe=554EF48E&__gda__=1432287629_fd1d29ea66e95dbb2973ae474ba3d27e
p1238
sa(dp1239
g2
Vhttps://fbcdn-sphotos-f-a.akamaihd.net/hphotos-ak-xap1/v/t1.0-9/s720x720/10670170_10154699193965434_4761282988965302850_n.jpg?oh=fe99a7b71354eb8e09c3612b614acc71&oe=5596400A&__gda__=1432506289_ea6433c440f6a57abefa48b4b62eeec0
p1240
sg4
V10670170_10154699193965434_4761282988965302850_n.jpg?oh=fe99a7b71354eb8e09c3612b614acc71&oe=5596400A&__gda__=1432506289_ea6433c440f6a57abefa48b4b62eeec0
p1241
sa(dp1242
g2
Vhttps://fbcdn-sphotos-d-a.akamaihd.net/hphotos-ak-xpf1/v/t1.0-9/s720x720/10712981_10154699193520434_5077391991722878363_n.jpg?oh=b473fb1fca9226b751b14f902366dacf&oe=55942BED&__gda__=1431186683_7c90ab22f2450a96ce9ca57672efb6c2
p1243
sg4
V10712981_10154699193520434_5077391991722878363_n.jpg?oh=b473fb1fca9226b751b14f902366dacf&oe=55942BED&__gda__=1431186683_7c90ab22f2450a96ce9ca57672efb6c2
p1244
sa(dp1245
g2
Vhttps://scontent-a.xx.fbcdn.net/hphotos-xpa1/v/t1.0-9/s720x720/10353004_10154699193135434_5668732732895765140_n.jpg?oh=af438cbddc9176dae189253cdf1a3102&oe=556A5D85
p1246
sg4
V10353004_10154699193135434_5668732732895765140_n.jpg?oh=af438cbddc9176dae189253cdf1a3102&oe=556A5D85
p1247
sa(dp1248
g2
Vhttps://scontent-a.xx.fbcdn.net/hphotos-xfp1/v/t1.0-9/s720x720/10593050_10154699192795434_7554004423361097650_n.jpg?oh=7e885915c8b3f747ac99aef56a1dd41a&oe=5559A5FF
p1249
sg4
V10593050_10154699192795434_7554004423361097650_n.jpg?oh=7e885915c8b3f747ac99aef56a1dd41a&oe=5559A5FF
p1250
sa(dp1251
g2
Vhttps://scontent-b.xx.fbcdn.net/hphotos-xpf1/v/t1.0-9/s720x720/1959250_10154699192445434_7925945189492178548_n.jpg?oh=8c2c0281ae5dd3700eaf561b30fee2e4&oe=55624BC3
p1252
sg4
V1959250_10154699192445434_7925945189492178548_n.jpg?oh=8c2c0281ae5dd3700eaf561b30fee2e4&oe=55624BC3
p1253
sa(dp1254
g2
Vhttps://scontent-b.xx.fbcdn.net/hphotos-xpf1/v/t1.0-9/s720x720/10428672_10154699192110434_554793442326585977_n.jpg?oh=c4d092e6531939df4c91317edbcdc316&oe=55495E0E
p1255
sg4
V10428672_10154699192110434_554793442326585977_n.jpg?oh=c4d092e6531939df4c91317edbcdc316&oe=55495E0E
p1256
sa(dp1257
g2
Vhttps://scontent-b.xx.fbcdn.net/hphotos-xfp1/v/t1.0-9/q81/p480x480/10629666_10154699191860434_7954523586698206173_n.jpg?oh=61fe499339742e2a9797e8dddf8bf268&oe=5549AF31
p1258
sg4
V10629666_10154699191860434_7954523586698206173_n.jpg?oh=61fe499339742e2a9797e8dddf8bf268&oe=5549AF31
p1259
sa(dp1260
g2
Vhttps://fbcdn-sphotos-f-a.akamaihd.net/hphotos-ak-xpf1/v/t1.0-9/q81/s720x720/230128_10154699191630434_4870538349830486533_n.jpg?oh=06b44ffb3443a98a5d0d89058ad2080a&oe=5553F44E&__gda__=1431604056_6d3b490c965ba445fc0ebc69a9e97066
p1261
sg4
V230128_10154699191630434_4870538349830486533_n.jpg?oh=06b44ffb3443a98a5d0d89058ad2080a&oe=5553F44E&__gda__=1431604056_6d3b490c965ba445fc0ebc69a9e97066
p1262
sa(dp1263
g2
Vhttps://scontent-a.xx.fbcdn.net/hphotos-xfp1/v/t1.0-9/q81/s720x720/10675556_10154699191320434_7359422008954871282_n.jpg?oh=d7a535c1eca555c751d81618741770f1&oe=55570940
p1264
sg4
V10675556_10154699191320434_7359422008954871282_n.jpg?oh=d7a535c1eca555c751d81618741770f1&oe=55570940
p1265
sa(dp1266
g2
Vhttps://scontent-a.xx.fbcdn.net/hphotos-xfa1/v/t1.0-9/s720x720/10361591_10154699190745434_5594738735942943054_n.jpg?oh=75c509c5b023ad0aa1858081b4b7d97e&oe=559491CE
p1267
sg4
V10361591_10154699190745434_5594738735942943054_n.jpg?oh=75c509c5b023ad0aa1858081b4b7d97e&oe=559491CE
p1268
sa(dp1269
g2
Vhttps://fbcdn-sphotos-c-a.akamaihd.net/hphotos-ak-xfp1/v/t1.0-9/s720x720/10362370_10154699189970434_3568526990075849858_n.jpg?oh=6eb470b505952640e2045b47a2472f94&oe=555FE787&__gda__=1431586686_3dcdad17a0a93bab1de87cd2282063f7
p1270
sg4
V10362370_10154699189970434_3568526990075849858_n.jpg?oh=6eb470b505952640e2045b47a2472f94&oe=555FE787&__gda__=1431586686_3dcdad17a0a93bab1de87cd2282063f7
p1271
sa(dp1272
g2
Vhttps://scontent-a.xx.fbcdn.net/hphotos-xfp1/v/t1.0-9/s720x720/10600572_10154699189450434_5289844390084280874_n.jpg?oh=537251e8e61bb392ab93a5b7b16033cc&oe=55618432
p1273
sg4
V10600572_10154699189450434_5289844390084280874_n.jpg?oh=537251e8e61bb392ab93a5b7b16033cc&oe=55618432
p1274
sa(dp1275
g2
Vhttps://scontent-b.xx.fbcdn.net/hphotos-xap1/v/t1.0-9/p480x480/10702208_10154699189125434_3124489293995930385_n.jpg?oh=dbde9333e5b806329dce88424d0033d9&oe=555F5A21
p1276
sg4
V10702208_10154699189125434_3124489293995930385_n.jpg?oh=dbde9333e5b806329dce88424d0033d9&oe=555F5A21
p1277
sa(dp1278
g2
Vhttps://scontent-b.xx.fbcdn.net/hphotos-xap1/v/t1.0-9/q82/s720x720/10247270_10154699188980434_2685500110957769257_n.jpg?oh=eb2d54a9498e4a67a1db9bc40dd70a84&oe=5554E2F1
p1279
sg4
V10247270_10154699188980434_2685500110957769257_n.jpg?oh=eb2d54a9498e4a67a1db9bc40dd70a84&oe=5554E2F1
p1280
sa(dp1281
g2
Vhttps://scontent-a.xx.fbcdn.net/hphotos-xpf1/v/t1.0-9/s720x720/10418986_10154699188765434_1105204496684850889_n.jpg?oh=a1ba4926e9a786b41d26793d7bb0a64c&oe=5561C4C5
p1282
sg4
V10418986_10154699188765434_1105204496684850889_n.jpg?oh=a1ba4926e9a786b41d26793d7bb0a64c&oe=5561C4C5
p1283
sa(dp1284
g2
Vhttps://fbcdn-sphotos-a-a.akamaihd.net/hphotos-ak-xfa1/v/t1.0-9/s720x720/10686919_10154699188525434_3400335295965640063_n.jpg?oh=14faf3e39dc0480bf12b7a7c28faf803&oe=555029A7&__gda__=1430812409_41e378f4e07bdfe4728e4e821b18b8a3
p1285
sg4
V10686919_10154699188525434_3400335295965640063_n.jpg?oh=14faf3e39dc0480bf12b7a7c28faf803&oe=555029A7&__gda__=1430812409_41e378f4e07bdfe4728e4e821b18b8a3
p1286
sa(dp1287
g2
Vhttps://scontent-a.xx.fbcdn.net/hphotos-xfa1/v/t1.0-9/q83/s720x720/10712854_10154694543080434_7450323279342486651_n.jpg?oh=9c498d745ed4ab66f0d22a682757a7b7&oe=554EBCF9
p1288
sg4
V10712854_10154694543080434_7450323279342486651_n.jpg?oh=9c498d745ed4ab66f0d22a682757a7b7&oe=554EBCF9
p1289
sa(dp1290
g2
Vhttps://scontent-a.xx.fbcdn.net/hphotos-xpa1/v/t1.0-9/s720x720/1016491_10154694455545434_439145301817023601_n.jpg?oh=eebc3eabd996444f853fc244e4829b33&oe=555D6FBB
p1291
sg4
V1016491_10154694455545434_439145301817023601_n.jpg?oh=eebc3eabd996444f853fc244e4829b33&oe=555D6FBB
p1292
sa(dp1293
g2
Vhttps://scontent-b.xx.fbcdn.net/hphotos-xpf1/v/l/t1.0-9/q82/s720x720/1920627_10154694455440434_5488591582708627686_n.jpg?oh=ae9f0169c2ee673096ac03d66e6beb8d&oe=554FF1D4
p1294
sg4
VsquadF1D4
p1295
sa(dp1296
g2
Vhttps://fbcdn-sphotos-b-a.akamaihd.net/hphotos-ak-xfp1/v/t1.0-9/q84/s720x720/1798135_10154694455320434_6280538726622604772_n.jpg?oh=958c92a16bb538de22fefe7aec0aa7bc&oe=554857DF&__gda__=1431955791_4d044c9a7aadf971b282f8ef65daf349
p1297
sg4
V1798135_10154694455320434_6280538726622604772_n.jpg?oh=958c92a16bb538de22fefe7aec0aa7bc&oe=554857DF&__gda__=1431955791_4d044c9a7aadf971b282f8ef65daf349
p1298
sa(dp1299
g2
Vhttps://fbcdn-sphotos-d-a.akamaihd.net/hphotos-ak-xpa1/v/t1.0-9/s720x720/10650061_10154694455250434_737655901296989640_n.jpg?oh=e208bfe0df25aac1f4dc3c221538d6d5&oe=55928177&__gda__=1431266738_cfbaf0869743065de65b0f65ddb2101a
p1300
sg4
V10650061_10154694455250434_737655901296989640_n.jpg?oh=e208bfe0df25aac1f4dc3c221538d6d5&oe=55928177&__gda__=1431266738_cfbaf0869743065de65b0f65ddb2101a
p1301
sa(dp1302
g2
Vhttps://fbcdn-sphotos-f-a.akamaihd.net/hphotos-ak-xap1/v/t1.0-9/s720x720/1621892_10154694455140434_1307144591981011299_n.jpg?oh=6b4876154a645ae1dbf1616320d31486&oe=5550A8D6&__gda__=1430932974_c1e5da7d9a7f218234fcb23b2f8d9845
p1303
sg4
V1621892_10154694455140434_1307144591981011299_n.jpg?oh=6b4876154a645ae1dbf1616320d31486&oe=5550A8D6&__gda__=1430932974_c1e5da7d9a7f218234fcb23b2f8d9845
p1304
sa(dp1305
g2
Vhttps://scontent-a.xx.fbcdn.net/hphotos-xfp1/v/t1.0-9/s720x720/1800444_10154694454990434_7768528546130043079_n.jpg?oh=3042566ea873e70baab878ef99194324&oe=55517125
p1306
sg4
V1800444_10154694454990434_7768528546130043079_n.jpg?oh=3042566ea873e70baab878ef99194324&oe=55517125
p1307
sa(dp1308
g2
Vhttps://scontent-a.xx.fbcdn.net/hphotos-xaf1/v/t1.0-9/s720x720/1904100_10154694448860434_6170834313140104562_n.jpg?oh=a882ae5ef76aed169fa0cbafd5f5d5ee&oe=55582344
p1309
sg4
V1904100_10154694448860434_6170834313140104562_n.jpg?oh=a882ae5ef76aed169fa0cbafd5f5d5ee&oe=55582344
p1310
sa(dp1311
g2
Vhttps://fbcdn-sphotos-f-a.akamaihd.net/hphotos-ak-xfa1/v/t1.0-9/s720x720/1779966_10154694448710434_4487542429626712483_n.jpg?oh=70c107edcf9fa4830b2a8d8da5a0b676&oe=555AD064&__gda__=1431663855_2363112f4e1a488b05b3aee67cd2bfdf
p1312
sg4
V1779966_10154694448710434_4487542429626712483_n.jpg?oh=70c107edcf9fa4830b2a8d8da5a0b676&oe=555AD064&__gda__=1431663855_2363112f4e1a488b05b3aee67cd2bfdf
p1313
sa(dp1314
g2
Vhttps://fbcdn-sphotos-d-a.akamaihd.net/hphotos-ak-xpf1/v/t1.0-9/s720x720/1959309_10154694448615434_8517645194389970203_n.jpg?oh=fe29e3663623b757f2bcbfaac22044f2&oe=5556FE4E&__gda__=1431430629_a08ab19d5616ed4a28e28c145a5f8e53
p1315
sg4
V1959309_10154694448615434_8517645194389970203_n.jpg?oh=fe29e3663623b757f2bcbfaac22044f2&oe=5556FE4E&__gda__=1431430629_a08ab19d5616ed4a28e28c145a5f8e53
p1316
sa(dp1317
g2
Vhttps://fbcdn-sphotos-b-a.akamaihd.net/hphotos-ak-xpa1/v/t1.0-9/s720x720/10653720_10154694448525434_4338444930199958180_n.jpg?oh=7f3f41e552dec4d38fdc3467c48ffe7b&oe=5563337E&__gda__=1431308673_d1fe4a66803f84a312e3104ad338c0ac
p1318
sg4
V10653720_10154694448525434_4338444930199958180_n.jpg?oh=7f3f41e552dec4d38fdc3467c48ffe7b&oe=5563337E&__gda__=1431308673_d1fe4a66803f84a312e3104ad338c0ac
p1319
sa(dp1320
g2
Vhttps://fbcdn-sphotos-e-a.akamaihd.net/hphotos-ak-xpa1/v/t1.0-9/p720x720/65090_10154694098240434_7576910975086365729_n.jpg?oh=766949707087c1482288335ed2a7a2b3&oe=55507B12&__gda__=1432229317_61c9bff67c89beb92be8eebe1b1ef57f
p1321
sg4
V65090_10154694098240434_7576910975086365729_n.jpg?oh=766949707087c1482288335ed2a7a2b3&oe=55507B12&__gda__=1432229317_61c9bff67c89beb92be8eebe1b1ef57f
p1322
sa(dp1323
g2
Vhttps://fbcdn-sphotos-a-a.akamaihd.net/hphotos-ak-xpa1/v/t1.0-9/s720x720/10154533_10154687570905434_2353469794495177922_n.jpg?oh=2943ed3b82f9a87c5f2c143300bf5e62&oe=555218C6&__gda__=1432760633_ed109343238d0388f2c87f9d1bb1ccd2
p1324
sg4
V10154533_10154687570905434_2353469794495177922_n.jpg?oh=2943ed3b82f9a87c5f2c143300bf5e62&oe=555218C6&__gda__=1432760633_ed109343238d0388f2c87f9d1bb1ccd2
p1325
sa(dp1326
g2
Vhttps://fbcdn-sphotos-g-a.akamaihd.net/hphotos-ak-xap1/v/t1.0-9/s720x720/10672432_10154687570845434_8590400096465049672_n.jpg?oh=dee2f86988f66763ceafca8035d093e6&oe=5558EF25&__gda__=1432168094_06a402f844c45f5acb731865b052bd13
p1327
sg4
V10672432_10154687570845434_8590400096465049672_n.jpg?oh=dee2f86988f66763ceafca8035d093e6&oe=5558EF25&__gda__=1432168094_06a402f844c45f5acb731865b052bd13
p1328
sa(dp1329
g2
Vhttps://scontent-b.xx.fbcdn.net/hphotos-xpa1/v/t1.0-9/s720x720/10659195_10154687570730434_8223237320776122656_n.jpg?oh=efa448406cdee8fa5f61e5e59a26c8eb&oe=5561BC30
p1330
sg4
V10659195_10154687570730434_8223237320776122656_n.jpg?oh=efa448406cdee8fa5f61e5e59a26c8eb&oe=5561BC30
p1331
sa(dp1332
g2
Vhttps://scontent-b.xx.fbcdn.net/hphotos-xpf1/v/t1.0-9/s720x720/1620417_10154687570660434_3358626153789620388_n.jpg?oh=349f465e8770184e90583fad59a91c7a&oe=556A4921
p1333
sg4
V1620417_10154687570660434_3358626153789620388_n.jpg?oh=349f465e8770184e90583fad59a91c7a&oe=556A4921
p1334
sa(dp1335
g2
Vhttps://scontent-a.xx.fbcdn.net/hphotos-xpa1/v/t1.0-9/s720x720/10426094_10154687570590434_386260742689017340_n.jpg?oh=437d168d9cc40f1392f62d16e027cf31&oe=555F18C9
p1336
sg4
V10426094_10154687570590434_386260742689017340_n.jpg?oh=437d168d9cc40f1392f62d16e027cf31&oe=555F18C9
p1337
sa(dp1338
g2
Vhttps://scontent-a.xx.fbcdn.net/hphotos-xaf1/v/t1.0-9/s720x720/10639510_10154687570535434_6235700855282893216_n.jpg?oh=85cb728e0a5596e561b41bfbb43c97d5&oe=5558E4B1
p1339
sg4
V10639510_10154687570535434_6235700855282893216_n.jpg?oh=85cb728e0a5596e561b41bfbb43c97d5&oe=5558E4B1
p1340
sa(dp1341
g2
Vhttps://scontent-a.xx.fbcdn.net/hphotos-xap1/v/t1.0-9/s720x720/10659391_10154687570490434_7021682124023283248_n.jpg?oh=117342ccc6defe990b641f9ea82931b8&oe=55668A90
p1342
sg4
V10659391_10154687570490434_7021682124023283248_n.jpg?oh=117342ccc6defe990b641f9ea82931b8&oe=55668A90
p1343
sa(dp1344
g2
Vhttps://scontent-a.xx.fbcdn.net/hphotos-xfp1/v/t1.0-9/s720x720/10610544_10154687570390434_7486347917501795938_n.jpg?oh=d74a4b9a64ed9f77784568be6193ce14&oe=5559D833
p1345
sg4
V10610544_10154687570390434_7486347917501795938_n.jpg?oh=d74a4b9a64ed9f77784568be6193ce14&oe=5559D833
p1346
sa(dp1347
g2
Vhttps://scontent-b.xx.fbcdn.net/hphotos-xpf1/v/t1.0-9/s720x720/997091_10154687570270434_3794878604829374473_n.jpg?oh=7aa1f4276104db59ec15f3a471b91a13&oe=5551E957
p1348
sg4
V997091_10154687570270434_3794878604829374473_n.jpg?oh=7aa1f4276104db59ec15f3a471b91a13&oe=5551E957
p1349
sa(dp1350
g2
Vhttps://fbcdn-sphotos-d-a.akamaihd.net/hphotos-ak-xfa1/v/t1.0-9/s720x720/10678616_10154687570205434_4653293763378839281_n.jpg?oh=c19cd19e37af670c97fe7d15983d662b&oe=555D6DD9&__gda__=1431136135_1dfe30dc1cae848d5a94ca5d129d0305
p1351
sg4
V10678616_10154687570205434_4653293763378839281_n.jpg?oh=c19cd19e37af670c97fe7d15983d662b&oe=555D6DD9&__gda__=1431136135_1dfe30dc1cae848d5a94ca5d129d0305
p1352
sa(dp1353
g2
Vhttps://fbcdn-sphotos-b-a.akamaihd.net/hphotos-ak-xap1/v/t1.0-9/q81/s720x720/10660194_10154687570115434_1698576474370704679_n.jpg?oh=169843f9460819d4eb9be80d55af9cff&oe=5594BBFF&__gda__=1431105076_216fa6dc6c92ceae052d6c221a792dc4
p1354
sg4
V10660194_10154687570115434_1698576474370704679_n.jpg?oh=169843f9460819d4eb9be80d55af9cff&oe=5594BBFF&__gda__=1431105076_216fa6dc6c92ceae052d6c221a792dc4
p1355
sa(dp1356
g2
Vhttps://scontent-b.xx.fbcdn.net/hphotos-xap1/v/t1.0-9/s720x720/10696232_10154687570000434_7635741709677393895_n.jpg?oh=4c2216947103002fcb5a53d267fdd24a&oe=55606C61
p1357
sg4
V10696232_10154687570000434_7635741709677393895_n.jpg?oh=4c2216947103002fcb5a53d267fdd24a&oe=55606C61
p1358
sa(dp1359
g2
Vhttps://fbcdn-sphotos-h-a.akamaihd.net/hphotos-ak-xpa1/v/t1.0-9/s720x720/10660310_10154687569935434_6083017658923699392_n.jpg?oh=34ffa42410d142410263cfa13bc247dd&oe=5559C9EE&__gda__=1431108625_070654b6a8bf9c576efb57f4aeaa2d37
p1360
sg4
V10660310_10154687569935434_6083017658923699392_n.jpg?oh=34ffa42410d142410263cfa13bc247dd&oe=5559C9EE&__gda__=1431108625_070654b6a8bf9c576efb57f4aeaa2d37
p1361
sa(dp1362
g2
Vhttps://scontent-b.xx.fbcdn.net/hphotos-xpa1/v/t1.0-9/s720x720/10620526_10154687569895434_4195713566710660643_n.jpg?oh=683b7641061624ac31e4a440f3023197&oe=554D3CFE
p1363
sg4
V10620526_10154687569895434_4195713566710660643_n.jpg?oh=683b7641061624ac31e4a440f3023197&oe=554D3CFE
p1364
sa(dp1365
g2
Vhttps://scontent-a.xx.fbcdn.net/hphotos-xpa1/v/t1.0-9/10476618_10154685764125434_8022460230401193531_n.jpg?oh=b8894c2a5b8a2714312ac0df1def1cf9&oe=5596C3FC
p1366
sg4
VPorter Robinson tonight at Stage AE  Doors at 8pm Tickets available at httpbitly1lVS51i and C3FC
p1367
sa(dp1368
g2
Vhttps://scontent-a.xx.fbcdn.net/hphotos-xpa1/v/t1.0-9/s720x720/10659397_10154680457910434_7658467856852510499_n.jpg?oh=ea21ad9d03e3b2548f2f93835ecdab63&oe=554AD38D
p1369
sg4
V10659397_10154680457910434_7658467856852510499_n.jpg?oh=ea21ad9d03e3b2548f2f93835ecdab63&oe=554AD38D
p1370
sa(dp1371
g2
Vhttps://fbcdn-sphotos-e-a.akamaihd.net/hphotos-ak-xpf1/v/t1.0-9/s720x720/9001_10154680457830434_8746229329642694958_n.jpg?oh=85148408fc9af5eed3414ffc469e08d5&oe=55587AF4&__gda__=1431177388_aff2fde0f51832c631094c9e11ec7003
p1372
sg4
V9001_10154680457830434_8746229329642694958_n.jpg?oh=85148408fc9af5eed3414ffc469e08d5&oe=55587AF4&__gda__=1431177388_aff2fde0f51832c631094c9e11ec7003
p1373
sa(dp1374
g2
Vhttps://fbcdn-sphotos-c-a.akamaihd.net/hphotos-ak-xpa1/v/t1.0-9/s720x720/10632807_10154680457780434_7641765114019746659_n.jpg?oh=71fdd3abbe1e4c55b9631863d56af461&oe=555F3635&__gda__=1435789770_a8d972f86d58ab81ac0297b7b6741f04
p1375
sg4
V10632807_10154680457780434_7641765114019746659_n.jpg?oh=71fdd3abbe1e4c55b9631863d56af461&oe=555F3635&__gda__=1435789770_a8d972f86d58ab81ac0297b7b6741f04
p1376
sa(dp1377
g2
Vhttps://scontent-b.xx.fbcdn.net/hphotos-xpf1/v/t1.0-9/s720x720/10653332_10154680457745434_8137593983063295198_n.jpg?oh=ca7104eb4da62163950a0c151c561a9c&oe=555AAD87
p1378
sg4
V10653332_10154680457745434_8137593983063295198_n.jpg?oh=ca7104eb4da62163950a0c151c561a9c&oe=555AAD87
p1379
sa(dp1380
g2
Vhttps://fbcdn-sphotos-h-a.akamaihd.net/hphotos-ak-xpf1/v/t1.0-9/s720x720/1920459_10154680457690434_2955907251039935306_n.jpg?oh=33cd54ca7bdff692640ce5d841f6f81e&oe=555C953F&__gda__=1433022100_b54edadd225e44e2f566882dfb1f6d94
p1381
sg4
V1920459_10154680457690434_2955907251039935306_n.jpg?oh=33cd54ca7bdff692640ce5d841f6f81e&oe=555C953F&__gda__=1433022100_b54edadd225e44e2f566882dfb1f6d94
p1382
sa(dp1383
g2
Vhttps://scontent-b.xx.fbcdn.net/hphotos-xap1/v/t1.0-9/s720x720/10698701_10154680457615434_984411985222660961_n.jpg?oh=d62678ac1610d8870bcffffef85ee54a&oe=5567AB99
p1384
sg4
V10698701_10154680457615434_984411985222660961_n.jpg?oh=d62678ac1610d8870bcffffef85ee54a&oe=5567AB99
p1385
sa(dp1386
g2
Vhttps://scontent-b.xx.fbcdn.net/hphotos-xap1/v/t1.0-9/s720x720/10441050_10154680457540434_4270442220625598289_n.jpg?oh=d814241fa1991040597c23bb11a825cb&oe=554AB612
p1387
sg4
V10441050_10154680457540434_4270442220625598289_n.jpg?oh=d814241fa1991040597c23bb11a825cb&oe=554AB612
p1388
sa(dp1389
g2
Vhttps://fbcdn-sphotos-a-a.akamaihd.net/hphotos-ak-xfp1/v/t1.0-9/s720x720/1891243_10154680457390434_5329734257008695424_n.jpg?oh=28e52dcb8eb9b15e8c93e4561e9ab839&oe=559360BC&__gda__=1432369005_17444c749f4557abe76c8b517c6be462
p1390
sg4
V1891243_10154680457390434_5329734257008695424_n.jpg?oh=28e52dcb8eb9b15e8c93e4561e9ab839&oe=559360BC&__gda__=1432369005_17444c749f4557abe76c8b517c6be462
p1391
sa(dp1392
g2
Vhttps://fbcdn-sphotos-b-a.akamaihd.net/hphotos-ak-xpf1/v/t1.0-9/s720x720/1891243_10154680457335434_4276991791665640224_n.jpg?oh=95cafa2f368a9fd2b2af1274f1c8a34f&oe=555B8805&__gda__=1435876014_588ad78ff6e7432f29585bcc232dd3c0
p1393
sg4
V1891243_10154680457335434_4276991791665640224_n.jpg?oh=95cafa2f368a9fd2b2af1274f1c8a34f&oe=555B8805&__gda__=1435876014_588ad78ff6e7432f29585bcc232dd3c0
p1394
sa(dp1395
g2
Vhttps://scontent-b.xx.fbcdn.net/hphotos-xfp1/t31.0-8/s720x720/10714198_10154680457130434_5561320897840667219_o.jpg
p1396
sg4
V10714198_10154680457130434_5561320897840667219_o.jpg
p1397
sa(dp1398
g2
Vhttps://fbcdn-sphotos-d-a.akamaihd.net/hphotos-ak-xfp1/v/t1.0-9/s720x720/10155614_10154680456940434_8270204257991270537_n.jpg?oh=54f6a53205a8ef707b2522ad3beefda5&oe=554C1B4C&__gda__=1432555445_85672cf7ce6cae2d79c7745ebc355d16
p1399
sg4
Vbless5d16
p1400
sa(dp1401
g2
Vhttps://scontent-a.xx.fbcdn.net/hphotos-xpf1/v/t1.0-9/s720x720/1922263_10154680348325434_5333624260324114183_n.jpg?oh=43f5272acbef3d0ae23f514ffb640acb&oe=555AEC94
p1402
sg4
Vlost and foundEC94
p1403
sa(dp1404
g2
Vhttps://scontent-a.xx.fbcdn.net/hphotos-xfp1/v/t1.0-9/s720x720/10665126_10154673803440434_5985324457728008943_n.jpg?oh=1a4f9927dfea6c60f1fff538530b369c&oe=5561190B
p1405
sg4
Vdont you love getting up at 630 to play quidditch hahaahhaha190B
p1406
sa(dp1407
g2
Vhttps://scontent-a.xx.fbcdn.net/hphotos-xfa1/t31.0-8/p480x480/10629503_10154669759210434_3339485559904844254_o.jpg
p1408
sg4
VDo you have your tickets yet Ticketshttpbitly1lVS51iEvent httpswwwfacebookcomevents.jpg
p1409
sa(dp1410
g2
Vhttps://scontent-b.xx.fbcdn.net/hphotos-xfp1/v/t1.0-9/p480x480/1979509_10154662266215434_9002834443005909139_n.jpg?oh=bfae49cf7914620ca34c838f62181335&oe=555369F3
p1411
sg4
V1979509_10154662266215434_9002834443005909139_n.jpg?oh=bfae49cf7914620ca34c838f62181335&oe=555369F3
p1412
sa(dp1413
g2
Vhttps://scontent-a.xx.fbcdn.net/hphotos-xap1/v/t1.0-9/p480x480/10348272_10154662266160434_5105858707743117892_n.jpg?oh=88e9659f7f79df162306128daaf5eebb&oe=55509145
p1414
sg4
V10348272_10154662266160434_5105858707743117892_n.jpg?oh=88e9659f7f79df162306128daaf5eebb&oe=55509145
p1415
sa(dp1416
g2
Vhttps://fbcdn-sphotos-a-a.akamaihd.net/hphotos-ak-xpf1/v/t1.0-9/p480x480/1511654_10154662266095434_4547068612109211314_n.jpg?oh=aeff1fd87ef0b1927b0f0b8f416bc058&oe=555A46EC&__gda__=1431259719_8cb1d124ac9b8e4dc8237d657a79c855
p1417
sg4
V1511654_10154662266095434_4547068612109211314_n.jpg?oh=aeff1fd87ef0b1927b0f0b8f416bc058&oe=555A46EC&__gda__=1431259719_8cb1d124ac9b8e4dc8237d657a79c855
p1418
sa(dp1419
g2
Vhttps://fbcdn-sphotos-b-a.akamaihd.net/hphotos-ak-xap1/v/t1.0-9/s720x720/10710629_10154650382845434_2159775989399057986_n.jpg?oh=eaf826881bcfb08e197e43a30665d92b&oe=5550CC2A&__gda__=1431349137_3cb114b3b85811a39e062544b46be1a4
p1420
sg4
VFall schedule of shows for Steez Promo PIttsburghPorter Robinson at Stage AE with Lemaitre and e1a4
p1421
sa(dp1422
g2
Vhttps://fbcdn-sphotos-d-a.akamaihd.net/hphotos-ak-xap1/v/t1.0-9/s720x720/10672313_10154640115355434_5822470257074520644_n.jpg?oh=b684be7f99da78a15fa5c84f84814526&oe=55670591&__gda__=1431188010_42c8a10a7bd20e82051a9296e255f2e7
p1423
sg4
V10672313_10154640115355434_5822470257074520644_n.jpg?oh=b684be7f99da78a15fa5c84f84814526&oe=55670591&__gda__=1431188010_42c8a10a7bd20e82051a9296e255f2e7
p1424
sa(dp1425
g2
Vhttps://fbcdn-sphotos-f-a.akamaihd.net/hphotos-ak-xap1/v/t1.0-9/s720x720/10360242_10154640115225434_7242077283159650692_n.jpg?oh=4ca1e09695ae2629fcc0e2f6a9bc6542&oe=5549F4B6&__gda__=1432662029_391fcf6faf9d3c35e14fada931b68887
p1426
sg4
V10360242_10154640115225434_7242077283159650692_n.jpg?oh=4ca1e09695ae2629fcc0e2f6a9bc6542&oe=5549F4B6&__gda__=1432662029_391fcf6faf9d3c35e14fada931b68887
p1427
sa(dp1428
g2
Vhttps://fbcdn-sphotos-g-a.akamaihd.net/hphotos-ak-xpa1/v/t1.0-9/s720x720/10653882_10154639826015434_5662554100678081379_n.jpg?oh=26dd153d503842331acafa55b7e1b7e9&oe=554BDC2E&__gda__=1431851217_599ccd0af0243381cd5a8ebc91e4e3f5
p1429
sg4
V10653882_10154639826015434_5662554100678081379_n.jpg?oh=26dd153d503842331acafa55b7e1b7e9&oe=554BDC2E&__gda__=1431851217_599ccd0af0243381cd5a8ebc91e4e3f5
p1430
sa(dp1431
g2
Vhttps://scontent-b.xx.fbcdn.net/hphotos-xpa1/v/t1.0-9/s720x720/10649760_10154639825970434_2442001343364696848_n.jpg?oh=af7002dca4587f8968cf888981bb4dd9&oe=5564BE9C
p1432
sg4
V crossed off the bucket listBE9C
p1433
sa(dp1434
g2
Vhttps://fbcdn-sphotos-b-a.akamaihd.net/hphotos-ak-xfp1/v/t1.0-9/p720x720/10155258_10154639270450434_302309478255372818_n.jpg?oh=568bbd2645588c1fe316220bed61bfee&oe=554A72D1&__gda__=1432762112_ca14be3bdbf86b23b73846e9a22cc167
p1435
sg4
Vc167
p1436
sa(dp1437
g2
Vhttps://scontent-b.xx.fbcdn.net/hphotos-xap1/v/t1.0-9/s720x720/10155258_10154639267175434_4303489849767117013_n.jpg?oh=e320232d10945e7bec98d8235ace6eb9&oe=5549FEAC
p1438
sg4
V10155258_10154639267175434_4303489849767117013_n.jpg?oh=e320232d10945e7bec98d8235ace6eb9&oe=5549FEAC
p1439
sa(dp1440
g2
Vhttps://scontent-a.xx.fbcdn.net/hphotos-xpa1/v/t1.0-9/s720x720/10686935_10154639267055434_9141657462753616845_n.jpg?oh=2a46af1dab11d772b1cdb7705d3401bb&oe=5594E4F3
p1441
sg4
V10686935_10154639267055434_9141657462753616845_n.jpg?oh=2a46af1dab11d772b1cdb7705d3401bb&oe=5594E4F3
p1442
sa(dp1443
g2
Vhttps://fbcdn-sphotos-c-a.akamaihd.net/hphotos-ak-xfp1/v/t1.0-9/s720x720/10151182_10154639266780434_8198013369454944778_n.jpg?oh=25bdf3e35fe715fc5f184a607334dfbc&oe=5561E7D6&__gda__=1431798063_0c5488dc7cb9e14e9991a8c81477a30a
p1444
sg4
V10151182_10154639266780434_8198013369454944778_n.jpg?oh=25bdf3e35fe715fc5f184a607334dfbc&oe=5561E7D6&__gda__=1431798063_0c5488dc7cb9e14e9991a8c81477a30a
p1445
sa(dp1446
g2
Vhttps://scontent-a.xx.fbcdn.net/hphotos-xaf1/v/t1.0-9/p480x480/10295813_10154639266670434_1619046437238647563_n.jpg?oh=33f3092ee0224f4a0f33aab9f1186385&oe=5559437A
p1447
sg4
V10295813_10154639266670434_1619046437238647563_n.jpg?oh=33f3092ee0224f4a0f33aab9f1186385&oe=5559437A
p1448
sa(dp1449
g2
Vhttps://fbcdn-sphotos-d-a.akamaihd.net/hphotos-ak-xpf1/v/t1.0-9/s720x720/1012748_10154639258635434_6741717990245179649_n.jpg?oh=8feaf46c5daff5f3a5e8755516aee13f&oe=5554F635&__gda__=1431457438_05226f7e01b8e8886da1a38d2da54da5
p1450
sg4
V1012748_10154639258635434_6741717990245179649_n.jpg?oh=8feaf46c5daff5f3a5e8755516aee13f&oe=5554F635&__gda__=1431457438_05226f7e01b8e8886da1a38d2da54da5
p1451
sa(dp1452
g2
Vhttps://fbcdn-sphotos-f-a.akamaihd.net/hphotos-ak-xfp1/v/t1.0-9/p480x480/10418916_10154639258585434_2003950843258923492_n.jpg?oh=d9af88dc621c2af2338754c45a46d06d&oe=5552631F&__gda__=1430854630_b30c54d1aaed8a4d3b998b7d71616cec
p1453
sg4
V10418916_10154639258585434_2003950843258923492_n.jpg?oh=d9af88dc621c2af2338754c45a46d06d&oe=5552631F&__gda__=1430854630_b30c54d1aaed8a4d3b998b7d71616cec
p1454
sa(dp1455
g2
Vhttps://scontent-a.xx.fbcdn.net/hphotos-xaf1/v/t1.0-9/p480x480/10702036_10154639258395434_8483356173331087109_n.jpg?oh=d603b2a525b74a744964a7a8a36b3873&oe=5567C1E5
p1456
sg4
V10702036_10154639258395434_8483356173331087109_n.jpg?oh=d603b2a525b74a744964a7a8a36b3873&oe=5567C1E5
p1457
sa(dp1458
g2
Vhttps://fbcdn-sphotos-a-a.akamaihd.net/hphotos-ak-xpa1/v/t1.0-9/s720x720/10704091_10154639258255434_3371326637926275186_n.jpg?oh=a10285a041eb6a3a2480d0d0be59c609&oe=555F55D4&__gda__=1432907819_c71a35f8816b7ef39afd5424a98380bb
p1459
sg4
V10704091_10154639258255434_3371326637926275186_n.jpg?oh=a10285a041eb6a3a2480d0d0be59c609&oe=555F55D4&__gda__=1432907819_c71a35f8816b7ef39afd5424a98380bb
p1460
sa(dp1461
g2
Vhttps://scontent-a.xx.fbcdn.net/hphotos-xap1/v/t1.0-9/s720x720/10712793_10154639258215434_4169948361073818689_n.jpg?oh=66ea5f1603c44e5a766b27eceeaacbd0&oe=555710FF
p1462
sg4
Vomg carolyn10FF
p1463
sa(dp1464
g2
Vhttps://fbcdn-sphotos-f-a.akamaihd.net/hphotos-ak-xfp1/v/t1.0-9/s720x720/10632720_10154639258160434_8380041850827250451_n.jpg?oh=fd7d8cfa5c2793d5c94f13309d20255b&oe=55922939&__gda__=1431698624_4f5ea49175e80220ab98f22246fd43c0
p1465
sg4
Vfor alec43c0
p1466
sa(dp1467
g2
Vhttps://scontent-b.xx.fbcdn.net/hphotos-xpa1/v/t1.0-9/s720x720/10649864_10154639258010434_63800921965393379_n.jpg?oh=74287d02eef5d2ab80e369b947e88fb0&oe=554CBCF0
p1468
sg4
V10649864_10154639258010434_63800921965393379_n.jpg?oh=74287d02eef5d2ab80e369b947e88fb0&oe=554CBCF0
p1469
sa(dp1470
g2
Vhttps://fbcdn-sphotos-h-a.akamaihd.net/hphotos-ak-xpa1/v/t1.0-9/s720x720/10628599_10154639257785434_7003268804619498369_n.jpg?oh=f898215f90c049d62dd3a4c9248d37b1&oe=55626E32&__gda__=1435880653_fed23502d71f8fdb984a06af544ecc92
p1471
sg4
V10628599_10154639257785434_7003268804619498369_n.jpg?oh=f898215f90c049d62dd3a4c9248d37b1&oe=55626E32&__gda__=1435880653_fed23502d71f8fdb984a06af544ecc92
p1472
sa(dp1473
g2
Vhttps://fbcdn-sphotos-c-a.akamaihd.net/hphotos-ak-xpf1/v/t1.0-9/s720x720/10676301_10154639257630434_4312689761911573251_n.jpg?oh=f621b7d1c7953497d942ea96a3939985&oe=5554DBBB&__gda__=1431994029_035291e7ef01b08a11f23455d383da59
p1474
sg4
V10676301_10154639257630434_4312689761911573251_n.jpg?oh=f621b7d1c7953497d942ea96a3939985&oe=5554DBBB&__gda__=1431994029_035291e7ef01b08a11f23455d383da59
p1475
sa(dp1476
g2
Vhttps://fbcdn-sphotos-e-a.akamaihd.net/hphotos-ak-xfa1/v/t1.0-9/s720x720/1525351_10154639257585434_995690854688062331_n.jpg?oh=a35bc91858f6ed7ea8015e4d6da82a52&oe=554CAA08&__gda__=1430803418_d026f8facfbeb16f80a1050f8329cf94
p1477
sg4
Vi made an app thingcf94
p1478
sa(dp1479
g2
Vhttps://scontent-b.xx.fbcdn.net/hphotos-xap1/v/t1.0-9/s720x720/10268500_10154639257550434_1398389702971916423_n.jpg?oh=953acd33e9a77921b49611614908aa9f&oe=5595C5CA
p1480
sg4
V10268500_10154639257550434_1398389702971916423_n.jpg?oh=953acd33e9a77921b49611614908aa9f&oe=5595C5CA
p1481
sa(dp1482
g2
Vhttps://fbcdn-sphotos-d-a.akamaihd.net/hphotos-ak-xpa1/t31.0-8/s720x720/10619948_10154639257325434_1176076872417419339_o.jpg
p1483
sg4
V10619948_10154639257325434_1176076872417419339_o.jpg
p1484
sa(dp1485
g2
Vhttps://fbcdn-sphotos-h-a.akamaihd.net/hphotos-ak-xfp1/v/t1.0-9/s720x720/10370818_10154639257145434_2724185999570751208_n.jpg?oh=099499bb18d31eb4f5015dc6941d4b2c&oe=5550BA19&__gda__=1432993504_6e91c603fdc177f1dc13614423b17358
p1486
sg4
V10370818_10154639257145434_2724185999570751208_n.jpg?oh=099499bb18d31eb4f5015dc6941d4b2c&oe=5550BA19&__gda__=1432993504_6e91c603fdc177f1dc13614423b17358
p1487
sa(dp1488
g2
Vhttps://scontent-a.xx.fbcdn.net/hphotos-xaf1/v/t1.0-9/s720x720/10703923_10154639257040434_4881049932339999598_n.jpg?oh=9a555a7034382340d1491aef9b613ad1&oe=555516B9
p1489
sg4
V10703923_10154639257040434_4881049932339999598_n.jpg?oh=9a555a7034382340d1491aef9b613ad1&oe=555516B9
p1490
sa(dp1491
g2
Vhttps://scontent-a.xx.fbcdn.net/hphotos-xfa1/v/t1.0-9/s720x720/1800406_10154639256840434_5921878172361638448_n.jpg?oh=06a9ae63c44a9181e4565978bf788085&oe=555981E1
p1492
sg4
V1800406_10154639256840434_5921878172361638448_n.jpg?oh=06a9ae63c44a9181e4565978bf788085&oe=555981E1
p1493
sa(dp1494
g2
Vhttps://fbcdn-sphotos-g-a.akamaihd.net/hphotos-ak-xpa1/v/t1.0-9/q83/s720x720/10624840_10154639256775434_8194076351256900686_n.jpg?oh=0b05283183ae172b3b524f4533f92680&oe=554EC60F&__gda__=1435764617_11e378d6e585f51403622edbe9ed62df
p1495
sg4
V10624840_10154639256775434_8194076351256900686_n.jpg?oh=0b05283183ae172b3b524f4533f92680&oe=554EC60F&__gda__=1435764617_11e378d6e585f51403622edbe9ed62df
p1496
sa(dp1497
g2
Vhttps://fbcdn-sphotos-f-a.akamaihd.net/hphotos-ak-xfp1/v/t1.0-9/s720x720/10703877_10154639256720434_8028639776073824981_n.jpg?oh=96e7773e1bb58723011d232a29f257dd&oe=5594ECDE&__gda__=1435830055_a968c3d0a359f78fb8bd0a0da8433ebe
p1498
sg4
Vbless this bae3ebe
p1499
sa(dp1500
g2
Vhttps://fbcdn-sphotos-d-a.akamaihd.net/hphotos-ak-xfp1/v/t1.0-9/s720x720/1235951_10154639256640434_3454616466755038953_n.jpg?oh=331e1c145212fb68433a312ce9352631&oe=5556233E&__gda__=1431068655_6b46a0fb301a65d85f43cc1107010c27
p1501
sg4
Vah yes classic me getting a bucket of fries and eating it infront of the gym at 12 am0c27
p1502
sa(dp1503
g2
Vhttps://fbcdn-sphotos-c-a.akamaihd.net/hphotos-ak-xfa1/v/t1.0-9/s720x720/10343652_10154639256525434_1206582552728170695_n.jpg?oh=ca9c3b7f5c60eb033975a52e1678434c&oe=554A4CCD&__gda__=1431343507_97bdc0b10efc8103fd5eadccb94421dc
p1504
sg4
V10343652_10154639256525434_1206582552728170695_n.jpg?oh=ca9c3b7f5c60eb033975a52e1678434c&oe=554A4CCD&__gda__=1431343507_97bdc0b10efc8103fd5eadccb94421dc
p1505
sa(dp1506
g2
Vhttps://scontent-a.xx.fbcdn.net/hphotos-xfa1/v/t1.0-9/s720x720/10247442_10154639256435434_8360968033003602362_n.jpg?oh=a6f07d3f41b91c7c17361aa319f9fcd6&oe=554C49E2
p1507
sg4
V10247442_10154639256435434_8360968033003602362_n.jpg?oh=a6f07d3f41b91c7c17361aa319f9fcd6&oe=554C49E2
p1508
sa(dp1509
g2
Vhttps://fbcdn-sphotos-g-a.akamaihd.net/hphotos-ak-xfp1/v/t1.0-9/s720x720/10417583_10154639256340434_8679220170471416390_n.jpg?oh=5e5a521c7af70b58ae37f08dcd24c646&oe=554DAADF&__gda__=1433025062_30dddffff7a8ac618938afb7a29ec678
p1510
sg4
V10417583_10154639256340434_8679220170471416390_n.jpg?oh=5e5a521c7af70b58ae37f08dcd24c646&oe=554DAADF&__gda__=1433025062_30dddffff7a8ac618938afb7a29ec678
p1511
sa(dp1512
g2
Vhttps://scontent-a.xx.fbcdn.net/hphotos-xfp1/v/t1.0-9/q81/s720x720/10343524_10154639256225434_2485321865218934187_n.jpg?oh=6750e13cb84a1673468bcbdff775c652&oe=554EAD9B
p1513
sg4
V10343524_10154639256225434_2485321865218934187_n.jpg?oh=6750e13cb84a1673468bcbdff775c652&oe=554EAD9B
p1514
sa(dp1515
g2
Vhttps://scontent-b.xx.fbcdn.net/hphotos-xap1/v/t1.0-9/s720x720/10639560_10154639256130434_5782870072336020019_n.jpg?oh=09c043e49e1e1ab1f2efa5a1b5d75283&oe=5555440C
p1516
sg4
V10639560_10154639256130434_5782870072336020019_n.jpg?oh=09c043e49e1e1ab1f2efa5a1b5d75283&oe=5555440C
p1517
sa(dp1518
g2
Vhttps://fbcdn-sphotos-f-a.akamaihd.net/hphotos-ak-xpa1/v/t1.0-9/s720x720/10653635_10154639256010434_6573826941429046443_n.jpg?oh=ecd3878bd3e80b4cfc9bb52b276abe85&oe=5568FE83&__gda__=1432472956_8fc38e237f1e3d1f74415b86e18f8538
p1519
sg4
V10653635_10154639256010434_6573826941429046443_n.jpg?oh=ecd3878bd3e80b4cfc9bb52b276abe85&oe=5568FE83&__gda__=1432472956_8fc38e237f1e3d1f74415b86e18f8538
p1520
sa(dp1521
g2
Vhttps://scontent-b.xx.fbcdn.net/hphotos-xfp1/v/t1.0-9/q82/s720x720/10609493_10154628315630434_6119093217150104952_n.jpg?oh=6be106a6d03980bb31f4e5326e520308&oe=555E194D
p1522
sg4
VIf youre still in need of tickets for PR let me know asap Only 2 Weeks until Porter Robinson brin194D
p1523
sa(dp1524
g2
Vhttps://fbcdn-sphotos-e-a.akamaihd.net/hphotos-ak-xap1/v/t1.0-9/s720x720/10686820_10154608963560434_8705204766186712791_n.jpg?oh=e717fbffff8031dad9b339d8b2d09aa1&oe=555CECDD&__gda__=1432651622_eb698bffaa1ba8caec0eb018ecd6f4d2
p1525
sg4
V10686820_10154608963560434_8705204766186712791_n.jpg?oh=e717fbffff8031dad9b339d8b2d09aa1&oe=555CECDD&__gda__=1432651622_eb698bffaa1ba8caec0eb018ecd6f4d2
p1526
sa(dp1527
g2
Vhttps://fbcdn-sphotos-c-a.akamaihd.net/hphotos-ak-xpa1/v/t1.0-9/s720x720/10360779_10154608963505434_8104495751123845525_n.jpg?oh=4528a0d0d0c2ca8391f163ede2b0cf7a&oe=55934474&__gda__=1431480971_9b8900aaadddb05ac161c979c7333f96
p1528
sg4
V10360779_10154608963505434_8104495751123845525_n.jpg?oh=4528a0d0d0c2ca8391f163ede2b0cf7a&oe=55934474&__gda__=1431480971_9b8900aaadddb05ac161c979c7333f96
p1529
sa(dp1530
g2
Vhttps://scontent-b.xx.fbcdn.net/hphotos-xpf1/v/t1.0-9/s720x720/10672225_10154608963425434_6058712178542464185_n.jpg?oh=d512e19b0027255ee51b3930af331369&oe=555EAB46
p1531
sg4
V10672225_10154608963425434_6058712178542464185_n.jpg?oh=d512e19b0027255ee51b3930af331369&oe=555EAB46
p1532
sa(dp1533
g2
Vhttps://scontent-b.xx.fbcdn.net/hphotos-xpa1/v/t1.0-9/q82/s720x720/1514961_10154608963380434_4981791635251619507_n.jpg?oh=69f35bc2c95381d42693af6c0ecf9dd7&oe=55578CDB
p1534
sg4
V1514961_10154608963380434_4981791635251619507_n.jpg?oh=69f35bc2c95381d42693af6c0ecf9dd7&oe=55578CDB
p1535
sa(dp1536
g2
Vhttps://scontent-b.xx.fbcdn.net/hphotos-prn2/v/t1.0-9/s720x720/10592710_10154608963340434_566291507006443202_n.jpg?oh=589019b810e11067534842071e710dfe&oe=5594E56E
p1537
sg4
V10592710_10154608963340434_566291507006443202_n.jpg?oh=589019b810e11067534842071e710dfe&oe=5594E56E
p1538
sa(dp1539
g2
Vhttps://fbcdn-sphotos-c-a.akamaihd.net/hphotos-ak-xfa1/v/t1.0-9/s720x720/10411253_10154608963225434_3921099799604101342_n.jpg?oh=27df246b4ded066a8097b75f8b1e9257&oe=55656E6D&__gda__=1432624691_638286d08d9f63d2b21b339bf1179524
p1540
sg4
V10411253_10154608963225434_3921099799604101342_n.jpg?oh=27df246b4ded066a8097b75f8b1e9257&oe=55656E6D&__gda__=1432624691_638286d08d9f63d2b21b339bf1179524
p1541
sa(dp1542
g2
Vhttps://fbcdn-sphotos-e-a.akamaihd.net/hphotos-ak-xfp1/v/t1.0-9/s720x720/10458868_10154608963180434_697252661705414995_n.jpg?oh=6d6d0f356b3a6054d0b981e63913a992&oe=55937DE1&__gda__=1431113776_51cd1a3baa114861b72c9005d90f7727
p1543
sg4
V10458868_10154608963180434_697252661705414995_n.jpg?oh=6d6d0f356b3a6054d0b981e63913a992&oe=55937DE1&__gda__=1431113776_51cd1a3baa114861b72c9005d90f7727
p1544
sa(dp1545
g2
Vhttps://fbcdn-sphotos-g-a.akamaihd.net/hphotos-ak-xap1/v/t1.0-9/s720x720/10639736_10154608963100434_1860502804156207058_n.jpg?oh=a179360fae62c1ac414342b6a1692a55&oe=555066BF&__gda__=1432406532_65011666a7b86a14bfcde54e2012e101
p1546
sg4
V10639736_10154608963100434_1860502804156207058_n.jpg?oh=a179360fae62c1ac414342b6a1692a55&oe=555066BF&__gda__=1432406532_65011666a7b86a14bfcde54e2012e101
p1547
sa(dp1548
g2
Vhttps://scontent-a.xx.fbcdn.net/hphotos-xfa1/v/t1.0-9/q82/s720x720/10710721_10154608963005434_6910338142872345327_n.jpg?oh=02ecfefda6c5f45e76b550abfd9a4fd9&oe=55607A91
p1549
sg4
V10710721_10154608963005434_6910338142872345327_n.jpg?oh=02ecfefda6c5f45e76b550abfd9a4fd9&oe=55607A91
p1550
sa(dp1551
g2
Vhttps://fbcdn-sphotos-h-a.akamaihd.net/hphotos-ak-xap1/v/t1.0-9/s720x720/10687085_10154608962950434_1467518516681323232_n.jpg?oh=652b2330abd9112b26abb6b8faf0a673&oe=55949914&__gda__=1432787887_9c7ef2c544d4e39f9dfef93eee0776d9
p1552
sg4
V10687085_10154608962950434_1467518516681323232_n.jpg?oh=652b2330abd9112b26abb6b8faf0a673&oe=55949914&__gda__=1432787887_9c7ef2c544d4e39f9dfef93eee0776d9
p1553
sa(dp1554
g2
Vhttps://scontent-b.xx.fbcdn.net/hphotos-xpf1/v/t1.0-9/s720x720/10690020_10154608962885434_877723207952548826_n.jpg?oh=074893d748213413043bd9816731d968&oe=5596979E
p1555
sg4
V10690020_10154608962885434_877723207952548826_n.jpg?oh=074893d748213413043bd9816731d968&oe=5596979E
p1556
sa(dp1557
g2
Vhttps://fbcdn-sphotos-a-a.akamaihd.net/hphotos-ak-xpa1/v/t1.0-9/s720x720/10671500_10154608962805434_5230808809067532093_n.jpg?oh=e555c158de803ae30e2f6ce5634fc1d3&oe=55567B5B&__gda__=1431165604_70ce5662b3ad968610101c572a5e5e57
p1558
sg4
V10671500_10154608962805434_5230808809067532093_n.jpg?oh=e555c158de803ae30e2f6ce5634fc1d3&oe=55567B5B&__gda__=1431165604_70ce5662b3ad968610101c572a5e5e57
p1559
sa(dp1560
g2
Vhttps://scontent-a.xx.fbcdn.net/hphotos-xaf1/v/t1.0-9/s720x720/10703877_10154608962700434_1328383493069020623_n.jpg?oh=ea78c97bf6164b01003f0fd69f3fec4e&oe=554A04BD
p1561
sg4
V10703877_10154608962700434_1328383493069020623_n.jpg?oh=ea78c97bf6164b01003f0fd69f3fec4e&oe=554A04BD
p1562
sa(dp1563
g2
Vhttps://fbcdn-sphotos-e-a.akamaihd.net/hphotos-ak-xap1/v/t1.0-9/q81/s720x720/10687085_10154608962660434_5095318058891744257_n.jpg?oh=8ebc28d3fc839f4f9da270b2936b996b&oe=5563C5D1&__gda__=1432985114_655e4698955a0e7032f20c7b19ba6c01
p1564
sg4
V10687085_10154608962660434_5095318058891744257_n.jpg?oh=8ebc28d3fc839f4f9da270b2936b996b&oe=5563C5D1&__gda__=1432985114_655e4698955a0e7032f20c7b19ba6c01
p1565
sa(dp1566
g2
Vhttps://scontent-a.xx.fbcdn.net/hphotos-xpa1/v/t1.0-9/s720x720/10703588_10154608962585434_3048105314739091713_n.jpg?oh=ec5fe7fd3227e0683f833b21b8c7de59&oe=5559FF80
p1567
sg4
V10703588_10154608962585434_3048105314739091713_n.jpg?oh=ec5fe7fd3227e0683f833b21b8c7de59&oe=5559FF80
p1568
sa(dp1569
g2
Vhttps://fbcdn-sphotos-b-a.akamaihd.net/hphotos-ak-xpf1/v/t1.0-9/s720x720/10622790_10154608962540434_6841835130229024009_n.jpg?oh=18a2d4218f13a362569b03eb80609d09&oe=5563EF5E&__gda__=1431075400_e3cab0120fbd63b5abcc2f7dd3fe06b9
p1570
sg4
V10622790_10154608962540434_6841835130229024009_n.jpg?oh=18a2d4218f13a362569b03eb80609d09&oe=5563EF5E&__gda__=1431075400_e3cab0120fbd63b5abcc2f7dd3fe06b9
p1571
sa(dp1572
g2
Vhttps://fbcdn-sphotos-h-a.akamaihd.net/hphotos-ak-xap1/v/t1.0-9/s720x720/10712876_10154608962480434_4622560000745768752_n.jpg?oh=97f87011768ea54cb58b0e1af71f6a44&oe=5550717E&__gda__=1431176645_3dd5472dac73ee7376e9c9562bb39b3d
p1573
sg4
V10712876_10154608962480434_4622560000745768752_n.jpg?oh=97f87011768ea54cb58b0e1af71f6a44&oe=5550717E&__gda__=1431176645_3dd5472dac73ee7376e9c9562bb39b3d
p1574
sa(dp1575
g2
Vhttps://scontent-b.xx.fbcdn.net/hphotos-xpf1/v/t1.0-9/s720x720/10665813_10154602271605434_4726585565356565321_n.jpg?oh=387a6d97eb4b424bb2863f95848e34b8&oe=55690644
p1576
sg4
Vok white boys holding fish is common on tinder but this is 0644
p1577
sa(dp1578
g2
Vhttps://fbcdn-sphotos-d-a.akamaihd.net/hphotos-ak-xpa1/v/t1.0-9/s720x720/15781_10154602271570434_480190261242914445_n.jpg?oh=609817ec2a66c4641b1235493f876844&oe=555109BC&__gda__=1432053331_90a3e91c8370190721c94567f0d30e6e
p1579
sg4
V15781_10154602271570434_480190261242914445_n.jpg?oh=609817ec2a66c4641b1235493f876844&oe=555109BC&__gda__=1432053331_90a3e91c8370190721c94567f0d30e6e
p1580
sa(dp1581
g2
Vhttps://scontent-a.xx.fbcdn.net/hphotos-xpa1/v/t1.0-9/s720x720/10533425_10154602271460434_8786813032447421870_n.jpg?oh=0de0ff8c42c9ec47121c12164c3c37eb&oe=555E1123
p1582
sg4
V10533425_10154602271460434_8786813032447421870_n.jpg?oh=0de0ff8c42c9ec47121c12164c3c37eb&oe=555E1123
p1583
sa(dp1584
g2
Vhttps://scontent-a.xx.fbcdn.net/hphotos-xap1/v/t1.0-9/s720x720/10458229_10154602271400434_615937490391071011_n.jpg?oh=bc8bbbfe1c16457a184f1acf793c77d4&oe=5557FBEA
p1585
sg4
V10458229_10154602271400434_615937490391071011_n.jpg?oh=bc8bbbfe1c16457a184f1acf793c77d4&oe=5557FBEA
p1586
sa(dp1587
g2
Vhttps://scontent-b.xx.fbcdn.net/hphotos-xpf1/v/t1.0-9/s720x720/10616347_10154602271325434_3798633532607782438_n.jpg?oh=8ffc872b2d47a4d13658d226ad108f3d&oe=55664ED4
p1588
sg4
V10616347_10154602271325434_3798633532607782438_n.jpg?oh=8ffc872b2d47a4d13658d226ad108f3d&oe=55664ED4
p1589
sa(dp1590
g2
Vhttps://fbcdn-sphotos-h-a.akamaihd.net/hphotos-ak-xfp1/v/t1.0-9/s720x720/10295795_10154602271275434_3600392382119267856_n.jpg?oh=bd6e8a533a5b7006b660d2656ec7093d&oe=55497457&__gda__=1432416174_e3b34f82cd1aa36c4cdb563718a7ed40
p1591
sg4
V10295795_10154602271275434_3600392382119267856_n.jpg?oh=bd6e8a533a5b7006b660d2656ec7093d&oe=55497457&__gda__=1432416174_e3b34f82cd1aa36c4cdb563718a7ed40
p1592
sa(dp1593
g2
Vhttps://fbcdn-sphotos-f-a.akamaihd.net/hphotos-ak-xap1/v/t1.0-9/s720x720/10425897_10154602271210434_7222154056424527864_n.jpg?oh=93f01ef213841418c27067e2cd97a495&oe=55492908&__gda__=1431698099_5e1b8da0e4bfd8ddef52a7b2ce86db47
p1594
sg4
V10425897_10154602271210434_7222154056424527864_n.jpg?oh=93f01ef213841418c27067e2cd97a495&oe=55492908&__gda__=1431698099_5e1b8da0e4bfd8ddef52a7b2ce86db47
p1595
sa(dp1596
g2
Vhttps://scontent-b.xx.fbcdn.net/hphotos-xfp1/v/t1.0-9/s720x720/10405535_10154602271095434_6953807012651932502_n.jpg?oh=706a37d6a3cecc7d03ba325261c70e66&oe=5567B468
p1597
sg4
V10405535_10154602271095434_6953807012651932502_n.jpg?oh=706a37d6a3cecc7d03ba325261c70e66&oe=5567B468
p1598
sa(dp1599
g2
Vhttps://scontent-a.xx.fbcdn.net/hphotos-xpa1/v/t1.0-9/s720x720/10649748_10154602270980434_3061446491253812546_n.jpg?oh=1a11ab2fdf85f62363596a5bb44bd0f4&oe=55510013
p1600
sg4
V10649748_10154602270980434_3061446491253812546_n.jpg?oh=1a11ab2fdf85f62363596a5bb44bd0f4&oe=55510013
p1601
sa(dp1602
g2
Vhttps://fbcdn-sphotos-g-a.akamaihd.net/hphotos-ak-xap1/v/t1.0-9/s720x720/10649594_10154602270860434_7925797212074056843_n.jpg?oh=38f137b498fdd12e95a28dad57158c78&oe=5550DD51&__gda__=1431422186_e8c8e4553c2b49b5d3760ad760fa2028
p1603
sg4
V10649594_10154602270860434_7925797212074056843_n.jpg?oh=38f137b498fdd12e95a28dad57158c78&oe=5550DD51&__gda__=1431422186_e8c8e4553c2b49b5d3760ad760fa2028
p1604
sa(dp1605
g2
Vhttps://fbcdn-sphotos-e-a.akamaihd.net/hphotos-ak-xpa1/v/t1.0-9/s720x720/10646899_10154602270750434_3512080574437768049_n.jpg?oh=e88765a8b40ed9d8aec34a428e3051c7&oe=556A7233&__gda__=1432019404_8a9c4fca297680a5f6c5fdb8ac8a36b6
p1606
sg4
V10646899_10154602270750434_3512080574437768049_n.jpg?oh=e88765a8b40ed9d8aec34a428e3051c7&oe=556A7233&__gda__=1432019404_8a9c4fca297680a5f6c5fdb8ac8a36b6
p1607
sa(dp1608
g2
Vhttps://scontent-a.xx.fbcdn.net/hphotos-xfa1/v/t1.0-9/s720x720/10659149_10154602270630434_1227049144308215830_n.jpg?oh=e43039e4bcd060d249aebea13f9e7adc&oe=55513FF4
p1609
sg4
V10659149_10154602270630434_1227049144308215830_n.jpg?oh=e43039e4bcd060d249aebea13f9e7adc&oe=55513FF4
p1610
sa(dp1611
g2
Vhttps://fbcdn-sphotos-h-a.akamaihd.net/hphotos-ak-xpf1/v/t1.0-9/s720x720/10301416_10154602270520434_5369891418480420555_n.jpg?oh=2076b64628e66bd942a69690d7f8a74d&oe=5551EC1F&__gda__=1435655689_63f411294877807315a1d7ed9aab0e97
p1612
sg4
V10301416_10154602270520434_5369891418480420555_n.jpg?oh=2076b64628e66bd942a69690d7f8a74d&oe=5551EC1F&__gda__=1435655689_63f411294877807315a1d7ed9aab0e97
p1613
sa(dp1614
g2
Vhttps://fbcdn-sphotos-b-a.akamaihd.net/hphotos-ak-xap1/v/t1.0-9/s720x720/10428010_10154602270475434_518844727028187012_n.jpg?oh=f76adb5a4368565519e32c9568ce7f66&oe=55657C57&__gda__=1432712303_e4b64a97b2e14061719503be3b91e835
p1615
sg4
Vdescriptione835
p1616
sa(dp1617
g2
Vhttps://fbcdn-sphotos-d-a.akamaihd.net/hphotos-ak-xap1/v/t1.0-9/s720x720/10703673_10154602270435434_5337910800932961475_n.jpg?oh=530c454a0a5d715ecea0d5aba87ba4fa&oe=5595D6DE&__gda__=1432330085_80952b1f8197823a7f8c920b8c8b351e
p1618
sg4
V10703673_10154602270435434_5337910800932961475_n.jpg?oh=530c454a0a5d715ecea0d5aba87ba4fa&oe=5595D6DE&__gda__=1432330085_80952b1f8197823a7f8c920b8c8b351e
p1619
sa(dp1620
g2
Vhttps://scontent-b.xx.fbcdn.net/hphotos-xfp1/v/t1.0-9/s720x720/10288750_10154600498660434_8284256826456719259_n.jpg?oh=7198b1bfc6ec4847c1ca924bf1bfdeb7&oe=5562CE0D
p1621
sg4
Vtru friends send over a pound of lucky charms marshmallows in the mail Nina Lee ilyCE0D
p1622
sa(dp1623
g2
Vhttps://fbcdn-sphotos-g-a.akamaihd.net/hphotos-ak-xpf1/v/t1.0-9/s720x720/1907448_10154600422840434_6939172426211209709_n.jpg?oh=5143f63c3a6669a14b452d48ec9d66e2&oe=55938B76&__gda__=1432812765_1f4f9f48812fb39e9969cf3c871b71b2
p1624
sg4
V1907448_10154600422840434_6939172426211209709_n.jpg?oh=5143f63c3a6669a14b452d48ec9d66e2&oe=55938B76&__gda__=1432812765_1f4f9f48812fb39e9969cf3c871b71b2
p1625
sa(dp1626
g2
Vhttps://fbcdn-sphotos-c-a.akamaihd.net/hphotos-ak-xfp1/t31.0-8/p480x480/10571918_10154590612265434_8750648418894308436_o.jpg
p1627
sg4
V10571918_10154590612265434_8750648418894308436_o.jpg
p1628
sa(dp1629
g2
Vhttps://scontent-a.xx.fbcdn.net/hphotos-xfp1/t31.0-8/p480x480/10557765_10154590612010434_1463079920773476450_o.jpg
p1630
sg4
V10557765_10154590612010434_1463079920773476450_o.jpg
p1631
sa(dp1632
g2
Vhttps://fbcdn-sphotos-b-a.akamaihd.net/hphotos-ak-xfp1/t31.0-8/p480x480/10700320_10154590611605434_945835384179625794_o.jpg
p1633
sg4
V10700320_10154590611605434_945835384179625794_o.jpg
p1634
sa(dp1635
g2
Vhttps://fbcdn-sphotos-h-a.akamaihd.net/hphotos-ak-xap1/t31.0-8/p480x480/1504207_10154590611100434_6800547845578617765_o.jpg
p1636
sg4
V1504207_10154590611100434_6800547845578617765_o.jpg
p1637
sa(dp1638
g2
Vhttps://fbcdn-sphotos-g-a.akamaihd.net/hphotos-ak-xap1/t31.0-8/p480x480/10633412_10154590610675434_7487053183228440429_o.jpg
p1639
sg4
V10633412_10154590610675434_7487053183228440429_o.jpg
p1640
sa(dp1641
g2
Vhttps://fbcdn-sphotos-a-a.akamaihd.net/hphotos-ak-xpf1/t31.0-8/p480x480/10518609_10154590610355434_7868129450512618022_o.jpg
p1642
sg4
V10518609_10154590610355434_7868129450512618022_o.jpg
p1643
sa(dp1644
g2
Vhttps://fbcdn-sphotos-c-a.akamaihd.net/hphotos-ak-xpf1/t31.0-8/s720x720/10603879_10154590609910434_1903098770162117792_o.jpg
p1645
sg4
V10603879_10154590609910434_1903098770162117792_o.jpg
p1646
sa(dp1647
g2
Vhttps://fbcdn-sphotos-e-a.akamaihd.net/hphotos-ak-xfa1/t31.0-8/p480x480/10662227_10154590609455434_7155171850459286267_o.jpg
p1648
sg4
V10662227_10154590609455434_7155171850459286267_o.jpg
p1649
sa(dp1650
g2
Vhttps://fbcdn-sphotos-h-a.akamaihd.net/hphotos-ak-xap1/t31.0-8/s720x720/1270965_10154590609185434_217030104422691953_o.jpg
p1651
sg4
V1270965_10154590609185434_217030104422691953_o.jpg
p1652
sa(dp1653
g2
Vhttps://fbcdn-sphotos-b-a.akamaihd.net/hphotos-ak-xfp1/t31.0-8/p480x480/10700259_10154590608920434_4137556958780542090_o.jpg
p1654
sg4
V10700259_10154590608920434_4137556958780542090_o.jpg
p1655
sa(dp1656
g2
Vhttps://scontent-b.xx.fbcdn.net/hphotos-xap1/t31.0-8/s720x720/1540506_10154590608605434_6736634463054514270_o.jpg
p1657
sg4
V1540506_10154590608605434_6736634463054514270_o.jpg
p1658
sa(dp1659
g2
Vhttps://fbcdn-sphotos-f-a.akamaihd.net/hphotos-ak-xpf1/t31.0-8/p480x480/10604498_10154590608330434_2474635940005840132_o.jpg
p1660
sg4
V10604498_10154590608330434_2474635940005840132_o.jpg
p1661
sa(dp1662
g2
Vhttps://fbcdn-sphotos-g-a.akamaihd.net/hphotos-ak-xpa1/t31.0-8/s720x720/10679953_10154590608040434_1887998184748189079_o.jpg
p1663
sg4
V10679953_10154590608040434_1887998184748189079_o.jpg
p1664
sa(dp1665
g2
Vhttps://scontent-a.xx.fbcdn.net/hphotos-xfp1/t31.0-8/p480x480/10572083_10154590607785434_6064843596085973143_o.jpg
p1666
sg4
V10572083_10154590607785434_6064843596085973143_o.jpg
p1667
sa(dp1668
g2
Vhttps://fbcdn-sphotos-b-a.akamaihd.net/hphotos-ak-xpa1/t31.0-8/p480x480/10603845_10154590607320434_7268326618852732735_o.jpg
p1669
sg4
V10603845_10154590607320434_7268326618852732735_o.jpg
p1670
sa(dp1671
g2
Vhttps://scontent-b.xx.fbcdn.net/hphotos-xap1/t31.0-8/p480x480/10575438_10154590607310434_8629493632814585691_o.jpg
p1672
sg4
V10575438_10154590607310434_8629493632814585691_o.jpg
p1673
sa(dp1674
g2
Vhttps://scontent-b.xx.fbcdn.net/hphotos-xpa1/t31.0-8/p480x480/10517316_10154590607300434_4643743376960366966_o.jpg
p1675
sg4
V10517316_10154590607300434_4643743376960366966_o.jpg
p1676
sa(dp1677
g2
Vhttps://fbcdn-sphotos-d-a.akamaihd.net/hphotos-ak-xpf1/v/t1.0-9/s720x720/10622958_10154590570440434_3564481790987315658_n.jpg?oh=47a50b55765489061bd1d1d49a3423c4&oe=5553607F&__gda__=1431796329_b1306c9c3fae0264507c819fe2161fe5
p1678
sg4
V10622958_10154590570440434_3564481790987315658_n.jpg?oh=47a50b55765489061bd1d1d49a3423c4&oe=5553607F&__gda__=1431796329_b1306c9c3fae0264507c819fe2161fe5
p1679
sa(dp1680
g2
Vhttps://scontent-a.xx.fbcdn.net/hphotos-xpa1/v/t1.0-9/p720x720/10646795_10154590570370434_3903065428426616896_n.jpg?oh=abacd8f156a3af5cf18f5d0ea1983e61&oe=555D19A9
p1681
sg4
V10646795_10154590570370434_3903065428426616896_n.jpg?oh=abacd8f156a3af5cf18f5d0ea1983e61&oe=555D19A9
p1682
sa(dp1683
g2
Vhttps://scontent-a.xx.fbcdn.net/hphotos-xaf1/v/t1.0-9/q82/s720x720/10408594_10154589132475434_8417273544231498926_n.jpg?oh=fdb64a81a6a7d3b37e951908fffdf526&oe=554A706D
p1684
sg4
V10408594_10154589132475434_8417273544231498926_n.jpg?oh=fdb64a81a6a7d3b37e951908fffdf526&oe=554A706D
p1685
sa(dp1686
g2
Vhttps://scontent-b.xx.fbcdn.net/hphotos-xpa1/v/t1.0-9/q82/s720x720/10696347_10154589132385434_3096286285568611064_n.jpg?oh=054700557b34df101c32d84361fa875a&oe=559214EB
p1687
sg4
V10696347_10154589132385434_3096286285568611064_n.jpg?oh=054700557b34df101c32d84361fa875a&oe=559214EB
p1688
sa(dp1689
g2
Vhttps://fbcdn-sphotos-b-a.akamaihd.net/hphotos-ak-xfa1/v/t1.0-9/s720x720/10641086_10154588054925434_6790799017598990087_n.jpg?oh=6e4fb63aeea2da1af34efe9a146e6730&oe=555B887C&__gda__=1435875106_449e873916e93a95a1019bbe99533e02
p1690
sg4
V10641086_10154588054925434_6790799017598990087_n.jpg?oh=6e4fb63aeea2da1af34efe9a146e6730&oe=555B887C&__gda__=1435875106_449e873916e93a95a1019bbe99533e02
p1691
sa(dp1692
g2
Vhttps://fbcdn-sphotos-a-a.akamaihd.net/hphotos-ak-xpa1/v/t1.0-9/s720x720/10444765_10154588054850434_3291556120660195235_n.jpg?oh=f9164fefa9899cb8455b98b225f2eb25&oe=55598ABC&__gda__=1431575619_26167edc11912e492d467ebb51937c2f
p1693
sg4
V10444765_10154588054850434_3291556120660195235_n.jpg?oh=f9164fefa9899cb8455b98b225f2eb25&oe=55598ABC&__gda__=1431575619_26167edc11912e492d467ebb51937c2f
p1694
sa(dp1695
g2
Vhttps://scontent-a.xx.fbcdn.net/hphotos-xpf1/v/t1.0-9/s720x720/10341741_10154588054760434_997270166420409565_n.jpg?oh=2a9839b0ae604147fc6a5ca9fd948de3&oe=5549BB35
p1696
sg4
V10341741_10154588054760434_997270166420409565_n.jpg?oh=2a9839b0ae604147fc6a5ca9fd948de3&oe=5549BB35
p1697
sa(dp1698
g2
Vhttps://fbcdn-sphotos-e-a.akamaihd.net/hphotos-ak-xaf1/v/t1.0-9/s720x720/10701968_10154588054695434_76528159593831100_n.jpg?oh=b8ad096da7de727b135c90be60d0a4e9&oe=5557756E&__gda__=1432009353_ab32acf5bb02c6282a1af22d02253472
p1699
sg4
V10701968_10154588054695434_76528159593831100_n.jpg?oh=b8ad096da7de727b135c90be60d0a4e9&oe=5557756E&__gda__=1432009353_ab32acf5bb02c6282a1af22d02253472
p1700
sa(dp1701
g2
Vhttps://fbcdn-sphotos-c-a.akamaihd.net/hphotos-ak-xpa1/v/t1.0-9/s720x720/10646713_10154588054585434_5670918873106272759_n.jpg?oh=568adf4785a04fd33bc6f8ca044c10d8&oe=55588762&__gda__=1432020637_4865a88aaadaa60260d2d1c858b2b730
p1702
sg4
V10646713_10154588054585434_5670918873106272759_n.jpg?oh=568adf4785a04fd33bc6f8ca044c10d8&oe=55588762&__gda__=1432020637_4865a88aaadaa60260d2d1c858b2b730
p1703
sa(dp1704
g2
Vhttps://scontent-b.xx.fbcdn.net/hphotos-xap1/v/t1.0-9/s720x720/10665255_10154588054475434_723290760413232131_n.jpg?oh=b53519e0884c53bfaf0d8a2181e64863&oe=5592919B
p1705
sg4
V10665255_10154588054475434_723290760413232131_n.jpg?oh=b53519e0884c53bfaf0d8a2181e64863&oe=5592919B
p1706
sa(dp1707
g2
Vhttps://scontent-b.xx.fbcdn.net/hphotos-xpf1/v/t1.0-9/s720x720/10404309_10154588054220434_8333338090864548103_n.jpg?oh=bc2f89cd9c424eb0c8867f3f44704107&oe=554BA42A
p1708
sg4
V10404309_10154588054220434_8333338090864548103_n.jpg?oh=bc2f89cd9c424eb0c8867f3f44704107&oe=554BA42A
p1709
sa(dp1710
g2
Vhttps://scontent-b.xx.fbcdn.net/hphotos-xfp1/v/t1.0-9/s720x720/10690172_10154588053990434_2306953663650099925_n.jpg?oh=e13b6613bf628cec6bd061e3dbf3aa8c&oe=5553D474
p1711
sg4
V10690172_10154588053990434_2306953663650099925_n.jpg?oh=e13b6613bf628cec6bd061e3dbf3aa8c&oe=5553D474
p1712
sa(dp1713
g2
Vhttps://scontent-a.xx.fbcdn.net/hphotos-xpa1/v/t1.0-9/s720x720/10665243_10154588053880434_5469722853849837301_n.jpg?oh=962370db56b08c2dcecbdd4207a58ce4&oe=5594AB51
p1714
sg4
V10665243_10154588053880434_5469722853849837301_n.jpg?oh=962370db56b08c2dcecbdd4207a58ce4&oe=5594AB51
p1715
sa(dp1716
g2
Vhttps://scontent-a.xx.fbcdn.net/hphotos-xaf1/v/t1.0-9/s720x720/10492215_10154588053790434_900143502792249107_n.jpg?oh=5e20f5d1a29892fe2a1a995a3152d5b8&oe=554C29CD
p1717
sg4
V10492215_10154588053790434_900143502792249107_n.jpg?oh=5e20f5d1a29892fe2a1a995a3152d5b8&oe=554C29CD
p1718
sa(dp1719
g2
Vhttps://fbcdn-sphotos-d-a.akamaihd.net/hphotos-ak-xpa1/v/t1.0-9/s720x720/10600378_10154588053690434_7324944008999545216_n.jpg?oh=2fad1f1443617ba9b6ee2641cd9d79ef&oe=5565EECF&__gda__=1431774256_ca2be97a9ed219a14dea56759cf396be
p1720
sg4
V10600378_10154588053690434_7324944008999545216_n.jpg?oh=2fad1f1443617ba9b6ee2641cd9d79ef&oe=5565EECF&__gda__=1431774256_ca2be97a9ed219a14dea56759cf396be
p1721
sa(dp1722
g2
Vhttps://scontent-b.xx.fbcdn.net/hphotos-xfp1/v/t1.0-9/s720x720/10685424_10154588053530434_6830086901247371836_n.jpg?oh=bd27a8fe5d2f1be4829c86fe75c5fb7d&oe=5592A3B8
p1723
sg4
V10685424_10154588053530434_6830086901247371836_n.jpg?oh=bd27a8fe5d2f1be4829c86fe75c5fb7d&oe=5592A3B8
p1724
sa(dp1725
g2
Vhttps://fbcdn-sphotos-h-a.akamaihd.net/hphotos-ak-xpf1/v/t1.0-9/s720x720/1544539_10154588053310434_4695273559306879907_n.jpg?oh=3dc9dc4287fc75447b19f2ccadf6227f&oe=55604504&__gda__=1431391151_681dc0ce10236023af71348d4b3105bf
p1726
sg4
V1544539_10154588053310434_4695273559306879907_n.jpg?oh=3dc9dc4287fc75447b19f2ccadf6227f&oe=55604504&__gda__=1431391151_681dc0ce10236023af71348d4b3105bf
p1727
sa(dp1728
g2
Vhttps://scontent-b.xx.fbcdn.net/hphotos-xap1/v/t1.0-9/s720x720/10620606_10154588053180434_1736013041760286057_n.jpg?oh=b6fafc06d114dd8c23f2e00076017a8f&oe=55561A81
p1729
sg4
V10620606_10154588053180434_1736013041760286057_n.jpg?oh=b6fafc06d114dd8c23f2e00076017a8f&oe=55561A81
p1730
sa(dp1731
g2
Vhttps://fbcdn-sphotos-c-a.akamaihd.net/hphotos-ak-xap1/v/t1.0-9/s720x720/10403713_10154588053080434_1902933484660424778_n.jpg?oh=28779fceab53e8e11d359cef22369d3b&oe=55656BD8&__gda__=1432285027_4764234d46dd7976c667a6160cdde79e
p1732
sg4
V10403713_10154588053080434_1902933484660424778_n.jpg?oh=28779fceab53e8e11d359cef22369d3b&oe=55656BD8&__gda__=1432285027_4764234d46dd7976c667a6160cdde79e
p1733
sa(dp1734
g2
Vhttps://fbcdn-sphotos-e-a.akamaihd.net/hphotos-ak-xpa1/v/t1.0-9/s720x720/10698533_10154588052950434_1767265290079716506_n.jpg?oh=c3fefb73848594cad6b32713e450107e&oe=554874A1&__gda__=1435710814_a2f78ed8cb3474f2c460f1a9d13f8517
p1735
sg4
V10698533_10154588052950434_1767265290079716506_n.jpg?oh=c3fefb73848594cad6b32713e450107e&oe=554874A1&__gda__=1435710814_a2f78ed8cb3474f2c460f1a9d13f8517
p1736
sa(dp1737
g2
Vhttps://scontent-a.xx.fbcdn.net/hphotos-xfa1/v/t1.0-9/s720x720/10613015_10154585067325434_6573128204810387982_n.jpg?oh=4c841e54cdb3466a7e3107b3b9dc746e&oe=5551CFD2
p1738
sg4
V10613015_10154585067325434_6573128204810387982_n.jpg?oh=4c841e54cdb3466a7e3107b3b9dc746e&oe=5551CFD2
p1739
sa(dp1740
g2
Vhttps://scontent-a.xx.fbcdn.net/hphotos-xfa1/v/l/t1.0-9/s720x720/10584054_10154585067275434_8828481873376978967_n.jpg?oh=41d47270e0a4ce200c909a3445fff251&oe=5548817E
p1741
sg4
V10584054_10154585067275434_8828481873376978967_n.jpg?oh=41d47270e0a4ce200c909a3445fff251&oe=5548817E
p1742
sa(dp1743
g2
Vhttps://fbcdn-sphotos-f-a.akamaihd.net/hphotos-ak-xpf1/v/t1.0-9/s720x720/16107_10154585067235434_6723053243269071860_n.jpg?oh=8133e403062f3c0316130e5a48c51703&oe=554CE435&__gda__=1432171442_21b0323646b3937beb31b7de6f863a9b
p1744
sg4
V16107_10154585067235434_6723053243269071860_n.jpg?oh=8133e403062f3c0316130e5a48c51703&oe=554CE435&__gda__=1432171442_21b0323646b3937beb31b7de6f863a9b
p1745
sa(dp1746
g2
Vhttps://scontent-b.xx.fbcdn.net/hphotos-xpa1/v/t1.0-9/s720x720/1601486_10154585067195434_2644546381795266216_n.jpg?oh=1b8c8b38d2400ef6674ca19c37584d21&oe=5562E8B0
p1747
sg4
V1601486_10154585067195434_2644546381795266216_n.jpg?oh=1b8c8b38d2400ef6674ca19c37584d21&oe=5562E8B0
p1748
sa(dp1749
g2
Vhttps://scontent-a.xx.fbcdn.net/hphotos-xfa1/v/t1.0-9/q83/s720x720/10632580_10154585067150434_4373643343588775810_n.jpg?oh=8d32290d2d737a5b4233626df6cfdcfd&oe=5555D9B6
p1750
sg4
V10632580_10154585067150434_4373643343588775810_n.jpg?oh=8d32290d2d737a5b4233626df6cfdcfd&oe=5555D9B6
p1751
sa(dp1752
g2
Vhttps://scontent-a.xx.fbcdn.net/hphotos-xpa1/v/t1.0-9/s720x720/10635968_10154585067025434_1281161288170543152_n.jpg?oh=19d5513aa550b19c119916be0d04caaa&oe=5559F4E5
p1753
sg4
V10635968_10154585067025434_1281161288170543152_n.jpg?oh=19d5513aa550b19c119916be0d04caaa&oe=5559F4E5
p1754
sa(dp1755
g2
Vhttps://fbcdn-sphotos-a-a.akamaihd.net/hphotos-ak-xaf1/v/t1.0-9/s720x720/10632571_10154585067000434_2737761968433980101_n.jpg?oh=4aad8af2f670ba39e4fb9820711d4c23&oe=55571D10&__gda__=1431206885_fbb96dd9284ccee17f71c2b3fefef8b8
p1756
sg4
V10632571_10154585067000434_2737761968433980101_n.jpg?oh=4aad8af2f670ba39e4fb9820711d4c23&oe=55571D10&__gda__=1431206885_fbb96dd9284ccee17f71c2b3fefef8b8
p1757
sa(dp1758
g2
Vhttps://fbcdn-sphotos-d-a.akamaihd.net/hphotos-ak-xpf1/v/t1.0-9/q83/s720x720/10645025_10154585066925434_4442871914370312992_n.jpg?oh=146e93d6b94023666d0dfe632215e579&oe=554DA056&__gda__=1432078677_1264323bcb8e1da05780236a016a8e0c
p1759
sg4
V10645025_10154585066925434_4442871914370312992_n.jpg?oh=146e93d6b94023666d0dfe632215e579&oe=554DA056&__gda__=1432078677_1264323bcb8e1da05780236a016a8e0c
p1760
sa(dp1761
g2
Vhttps://fbcdn-sphotos-f-a.akamaihd.net/hphotos-ak-xfp1/v/t1.0-9/s720x720/10603590_10154585066900434_6159329491730981394_n.jpg?oh=e09e6d40ed6b027a9e4713c7df93effb&oe=5592639D&__gda__=1431559268_84366d5123eae10df6422842108f7675
p1762
sg4
V10603590_10154585066900434_6159329491730981394_n.jpg?oh=e09e6d40ed6b027a9e4713c7df93effb&oe=5592639D&__gda__=1431559268_84366d5123eae10df6422842108f7675
p1763
sa(dp1764
g2
Vhttps://scontent-b.xx.fbcdn.net/hphotos-xfp1/v/t1.0-9/s720x720/10288765_10154585066845434_4841587627526202627_n.jpg?oh=c9d93204c9f9ba091f2e97340f22f9a5&oe=554F8EA5
p1765
sg4
V10288765_10154585066845434_4841587627526202627_n.jpg?oh=c9d93204c9f9ba091f2e97340f22f9a5&oe=554F8EA5
p1766
sa(dp1767
g2
Vhttps://scontent-b.xx.fbcdn.net/hphotos-xfp1/v/t1.0-9/s720x720/1625507_10154585066790434_819699957765789820_n.jpg?oh=0d9df85464cfdfd818ddf41ea8e4cec3&oe=5596326F
p1768
sg4
V1625507_10154585066790434_819699957765789820_n.jpg?oh=0d9df85464cfdfd818ddf41ea8e4cec3&oe=5596326F
p1769
sa(dp1770
g2
Vhttps://scontent-a.xx.fbcdn.net/hphotos-xpa1/v/t1.0-9/s720x720/10612712_10154585066730434_5985365350815556539_n.jpg?oh=869b79b5355a72eba4a508bf0c7d45af&oe=5566A00B
p1771
sg4
V10612712_10154585066730434_5985365350815556539_n.jpg?oh=869b79b5355a72eba4a508bf0c7d45af&oe=5566A00B
p1772
sa(dp1773
g2
Vhttps://fbcdn-sphotos-e-a.akamaihd.net/hphotos-ak-xap1/v/t1.0-9/s720x720/10675621_10154585066680434_5435551883125610231_n.jpg?oh=cd2998ec48b25a8e3af87310543fb6c3&oe=55565271&__gda__=1431581642_f217b59b2ffaaea480f6bdcbbb2114b2
p1774
sg4
V10675621_10154585066680434_5435551883125610231_n.jpg?oh=cd2998ec48b25a8e3af87310543fb6c3&oe=55565271&__gda__=1431581642_f217b59b2ffaaea480f6bdcbbb2114b2
p1775
sa(dp1776
g2
Vhttps://scontent-b.xx.fbcdn.net/hphotos-xfp1/v/t1.0-9/q82/s720x720/10686990_10154585066640434_1163090844644360689_n.jpg?oh=95106a1af36ab4dd8de5ab0f3a1024d2&oe=556103E2
p1777
sg4
V10686990_10154585066640434_1163090844644360689_n.jpg?oh=95106a1af36ab4dd8de5ab0f3a1024d2&oe=556103E2
p1778
sa(dp1779
g2
Vhttps://fbcdn-sphotos-d-a.akamaihd.net/hphotos-ak-xpf1/v/t1.0-9/s720x720/10599666_10154584879090434_7378600055810806959_n.jpg?oh=1a1ef54ab4bbe0dd8455b67dc24fbc56&oe=555A0903&__gda__=1432337685_3b13394d1e6692d8c34ca8a3c8869701
p1780
sg4
V10599666_10154584879090434_7378600055810806959_n.jpg?oh=1a1ef54ab4bbe0dd8455b67dc24fbc56&oe=555A0903&__gda__=1432337685_3b13394d1e6692d8c34ca8a3c8869701
p1781
sa(dp1782
g2
Vhttps://fbcdn-sphotos-b-a.akamaihd.net/hphotos-ak-xfp1/v/t1.0-9/s720x720/10606320_10154584879045434_7469063301330498279_n.jpg?oh=e8bc2f089be22d55635a816e77191379&oe=55515ABF&__gda__=1431987270_614486c8c89c3c7dc3c2c66e42d876e9
p1783
sg4
V10606320_10154584879045434_7469063301330498279_n.jpg?oh=e8bc2f089be22d55635a816e77191379&oe=55515ABF&__gda__=1431987270_614486c8c89c3c7dc3c2c66e42d876e9
p1784
sa(dp1785
g2
Vhttps://fbcdn-sphotos-h-a.akamaihd.net/hphotos-ak-xpa1/v/t1.0-9/s720x720/10660336_10154584878955434_4345129671218016185_n.jpg?oh=6ad9462a022a83c897bdab24cc241fb1&oe=554C7B94&__gda__=1431508843_737f01a31c9c757834677ce56a49cd44
p1786
sg4
V10660336_10154584878955434_4345129671218016185_n.jpg?oh=6ad9462a022a83c897bdab24cc241fb1&oe=554C7B94&__gda__=1431508843_737f01a31c9c757834677ce56a49cd44
p1787
sa(dp1788
g2
Vhttps://fbcdn-sphotos-e-a.akamaihd.net/hphotos-ak-xfa1/v/t1.0-9/s720x720/10615633_10154584878835434_1410702350236298460_n.jpg?oh=66b0b0aa2fd2b8537278bfcd91013dd1&oe=5561C6FC&__gda__=1432725922_80342ceef4a81239712a44e518290944
p1789
sg4
V10615633_10154584878835434_1410702350236298460_n.jpg?oh=66b0b0aa2fd2b8537278bfcd91013dd1&oe=5561C6FC&__gda__=1432725922_80342ceef4a81239712a44e518290944
p1790
sa(dp1791
g2
Vhttps://fbcdn-sphotos-c-a.akamaihd.net/hphotos-ak-xpa1/v/t1.0-9/s720x720/10606175_10154584878775434_1133841637654170856_n.jpg?oh=383fed76643c467097d0ece407fdc03c&oe=55571897&__gda__=1431834728_bde63deacc66db9cf0d77ec727975472
p1792
sg4
V10606175_10154584878775434_1133841637654170856_n.jpg?oh=383fed76643c467097d0ece407fdc03c&oe=55571897&__gda__=1431834728_bde63deacc66db9cf0d77ec727975472
p1793
sa(dp1794
g2
Vhttps://scontent-a.xx.fbcdn.net/hphotos-xfp1/v/t1.0-9/s720x720/10603590_10154584878705434_8676433544700332055_n.jpg?oh=81d3386261168e70230b78c04a904a41&oe=55697208
p1795
sg4
V10603590_10154584878705434_8676433544700332055_n.jpg?oh=81d3386261168e70230b78c04a904a41&oe=55697208
p1796
sa(dp1797
g2
Vhttps://fbcdn-sphotos-g-a.akamaihd.net/hphotos-ak-xfp1/v/t1.0-9/s720x720/1545764_10154584878650434_8186249732477658523_n.jpg?oh=981f9e0bb4ffb8a8b69046e46fc1c6f4&oe=555823AF&__gda__=1431520638_b559e196f9abf7baa0c7685ceed020b6
p1798
sg4
V1545764_10154584878650434_8186249732477658523_n.jpg?oh=981f9e0bb4ffb8a8b69046e46fc1c6f4&oe=555823AF&__gda__=1431520638_b559e196f9abf7baa0c7685ceed020b6
p1799
sa(dp1800
g2
Vhttps://scontent-b.xx.fbcdn.net/hphotos-xpa1/v/t1.0-9/s720x720/10614294_10154584878570434_8989951894379398065_n.jpg?oh=cf017bf4a76352d4ac59cf3030a50c8b&oe=5569A8E6
p1801
sg4
V10614294_10154584878570434_8989951894379398065_n.jpg?oh=cf017bf4a76352d4ac59cf3030a50c8b&oe=5569A8E6
p1802
sa.