(lp0
(dp1
S'src'
p2
Vhttps://scontent-a.xx.fbcdn.net/hphotos-xfa1/v/t1.0-9/p480x480/10891744_10153134403928338_2787720181347544139_n.jpg?oh=2aa8a93be704f12c2241b14d18c5310b&oe=555C0707
p3
sS'name'
p4
V10891744_10153134403928338_2787720181347544139_n.jpg?oh=2aa8a93be704f12c2241b14d18c5310b&oe=555C0707
p5
sa(dp6
g2
Vhttps://fbcdn-sphotos-c-a.akamaihd.net/hphotos-ak-xfp1/v/t1.0-9/10013095_10153134401643338_7863065348795119719_n.jpg?oh=6a13459848b91802b11363bf6615a98c&oe=5557C611&__gda__=1431894388_18cf47b3e2364ef1c079b60402e5ffd7
p7
sg4
V10013095_10153134401643338_7863065348795119719_n.jpg?oh=6a13459848b91802b11363bf6615a98c&oe=5557C611&__gda__=1431894388_18cf47b3e2364ef1c079b60402e5ffd7
p8
sa(dp9
g2
Vhttps://scontent-b.xx.fbcdn.net/hphotos-xpf1/v/t1.0-9/s720x720/1426649_10152942308868338_8308088253684908943_n.jpg?oh=742e3f38446a2fdaa1a37314efbb3c65&oe=5549663B
p10
sg4
V1426649_10152942308868338_8308088253684908943_n.jpg?oh=742e3f38446a2fdaa1a37314efbb3c65&oe=5549663B
p11
sa(dp12
g2
Vhttps://scontent-a.xx.fbcdn.net/hphotos-xfp1/v/t1.0-9/s720x720/1794749_10152942308758338_6011323046599906192_n.jpg?oh=d14d840d8b47dbf3aa4334bbd8cc7f1a&oe=5592A4D9
p13
sg4
V1794749_10152942308758338_6011323046599906192_n.jpg?oh=d14d840d8b47dbf3aa4334bbd8cc7f1a&oe=5592A4D9
p14
sa(dp15
g2
Vhttps://scontent-a.xx.fbcdn.net/hphotos-xfp1/v/t1.0-9/s720x720/1466098_10152942308618338_968540464686603650_n.jpg?oh=09724ef2eaa3b7c3edb98f1bb5a10bab&oe=55495601
p16
sg4
V1466098_10152942308618338_968540464686603650_n.jpg?oh=09724ef2eaa3b7c3edb98f1bb5a10bab&oe=55495601
p17
sa(dp18
g2
Vhttps://scontent-a.xx.fbcdn.net/hphotos-prn2/t31.0-8/p180x540/1053158_10152942308518338_4141357509641991904_o.jpg
p19
sg4
V1053158_10152942308518338_4141357509641991904_o.jpg
p20
sa(dp21
g2
Vhttps://scontent-a.xx.fbcdn.net/hphotos-xpf1/v/t1.0-9/s720x720/10422480_10152942308453338_3504352538087588555_n.jpg?oh=5039997d929607f2ddcc59976bc5d05e&oe=555306A5
p22
sg4
V10422480_10152942308453338_3504352538087588555_n.jpg?oh=5039997d929607f2ddcc59976bc5d05e&oe=555306A5
p23
sa(dp24
g2
Vhttps://fbcdn-sphotos-f-a.akamaihd.net/hphotos-ak-xfp1/v/t1.0-9/s720x720/10734203_10152942308398338_5677273455175773913_n.jpg?oh=63f326812ed8b71ad0c1e16fb91718de&oe=555A9F49&__gda__=1432636336_4f2bd860d77dbad2443d1eb797370235
p25
sg4
V10734203_10152942308398338_5677273455175773913_n.jpg?oh=63f326812ed8b71ad0c1e16fb91718de&oe=555A9F49&__gda__=1432636336_4f2bd860d77dbad2443d1eb797370235
p26
sa(dp27
g2
Vhttps://scontent-b.xx.fbcdn.net/hphotos-xpf1/v/t1.0-9/q81/s720x720/10805595_10152942308348338_7709365264816588080_n.jpg?oh=c1b2fcd4a470d11fce111f6c6b5329d8&oe=554B8FDD
p28
sg4
V10805595_10152942308348338_7709365264816588080_n.jpg?oh=c1b2fcd4a470d11fce111f6c6b5329d8&oe=554B8FDD
p29
sa(dp30
g2
Vhttps://scontent-b.xx.fbcdn.net/hphotos-xfp1/t31.0-8/p180x540/10443261_10152942308238338_24504082267335597_o.jpg
p31
sg4
V10443261_10152942308238338_24504082267335597_o.jpg
p32
sa(dp33
g2
Vhttps://scontent-b.xx.fbcdn.net/hphotos-xfp1/t31.0-8/s720x720/10506716_10152942308088338_5558461728500285732_o.jpg
p34
sg4
V10506716_10152942308088338_5558461728500285732_o.jpg
p35
sa(dp36
g2
Vhttps://fbcdn-sphotos-c-a.akamaihd.net/hphotos-ak-xap1/t31.0-8/p180x540/10687515_10152942307933338_6136394036912624080_o.jpg
p37
sg4
V10687515_10152942307933338_6136394036912624080_o.jpg
p38
sa(dp39
g2
Vhttps://fbcdn-sphotos-e-a.akamaihd.net/hphotos-ak-xfp1/v/t1.0-9/s720x720/10407876_10152942307793338_5674512274086258562_n.jpg?oh=623a854802cb6e66c355049022e82704&oe=55956956&__gda__=1431724207_46e1de1b40c900caa5ed097bd7398844
p40
sg4
V10407876_10152942307793338_5674512274086258562_n.jpg?oh=623a854802cb6e66c355049022e82704&oe=55956956&__gda__=1431724207_46e1de1b40c900caa5ed097bd7398844
p41
sa(dp42
g2
Vhttps://scontent-b.xx.fbcdn.net/hphotos-prn2/t31.0-8/p180x540/1053158_10152942307698338_4571992612232383912_o.jpg
p43
sg4
V1053158_10152942307698338_4571992612232383912_o.jpg
p44
sa(dp45
g2
Vhttps://fbcdn-sphotos-d-a.akamaihd.net/hphotos-ak-xap1/t31.0-8/s720x720/10620149_10152942307628338_5166905075699057965_o.jpg
p46
sg4
V10620149_10152942307628338_5166905075699057965_o.jpg
p47
sa(dp48
g2
Vhttps://scontent-b.xx.fbcdn.net/hphotos-xpf1/t31.0-8/s720x720/1966149_10152930603298338_3596179091763297053_o.jpg
p49
sg4
VTried no shave November Didnt last the entire thing though Its true I cant pull off a mousta.jpg
p50
sa(dp51
g2
Vhttps://fbcdn-sphotos-h-a.akamaihd.net/hphotos-ak-xpa1/v/t1.0-9/s720x720/10384048_10152505491698338_4316056713449114702_n.jpg?oh=5bfbd4e018cc2bd4dab0bf5d0d8c31b4&oe=5558EB0B&__gda__=1432589556_cf2f6b3a554a2da0794dfa8b57189568
p52
sg4
V10384048_10152505491698338_4316056713449114702_n.jpg?oh=5bfbd4e018cc2bd4dab0bf5d0d8c31b4&oe=5558EB0B&__gda__=1432589556_cf2f6b3a554a2da0794dfa8b57189568
p53
sa(dp54
g2
Vhttps://scontent-a.xx.fbcdn.net/hphotos-xap1/t31.0-8/s720x720/10256069_10152401915488338_1850594024769787045_o.jpg
p55
sg4
V10256069_10152401915488338_1850594024769787045_o.jpg
p56
sa(dp57
g2
Vhttps://fbcdn-sphotos-c-a.akamaihd.net/hphotos-ak-xaf1/v/t1.0-9/1926717_10152282994703338_451658475_n.jpg?oh=7b2db0400785727ee63256b3579d04a8&oe=5557AD24&__gda__=1431212207_3e06ee6258611813677dd21efb3e51a0
p58
sg4
Vrepost airshow siblingtime nikita_omnom51a0
p59
sa(dp60
g2
Vhttps://fbcdn-sphotos-a-a.akamaihd.net/hphotos-ak-xap1/v/t1.0-9/1796423_10152252268238338_1896687065_n.jpg?oh=40a4d4085add2470ff5b4815c9579b96&oe=5561A65F&__gda__=1431868037_0b88051cab1d4a0ee92528554e6277df
p61
sg4
V31 chandeliers made of uranium glass and illuminated by UV light resulting in a haunting green  E77df
p62
sa(dp63
g2
Vhttps://fbcdn-sphotos-g-a.akamaihd.net/hphotos-ak-xpa1/t31.0-8/s720x720/1540515_10152244565673338_929144725_o.jpg
p64
sg4
V1540515_10152244565673338_929144725_o.jpg
p65
sa(dp66
g2
Vhttps://scontent-b.xx.fbcdn.net/hphotos-xpa1/t31.0-8/p180x540/1529873_10152237725363338_1794825852_o.jpg
p67
sg4
V1529873_10152237725363338_1794825852_o.jpg
p68
sa(dp69
g2
Vhttps://fbcdn-sphotos-h-a.akamaihd.net/hphotos-ak-xpa1/t31.0-8/p180x540/1507461_10152237724963338_916533366_o.jpg
p70
sg4
V1507461_10152237724963338_916533366_o.jpg
p71
sa(dp72
g2
Vhttps://fbcdn-sphotos-b-a.akamaihd.net/hphotos-ak-xpa1/t31.0-8/s720x720/1602072_10152237724678338_933344782_o.jpg
p73
sg4
VI can tolerate alcohol now No thats not an excuse to ask me out drinking.jpg
p74
sa(dp75
g2
Vhttps://fbcdn-sphotos-c-a.akamaihd.net/hphotos-ak-xaf1/t31.0-8/p180x540/1597557_10152237724088338_33001258_o.jpg
p76
sg4
V1597557_10152237724088338_33001258_o.jpg
p77
sa(dp78
g2
Vhttps://scontent-a.xx.fbcdn.net/hphotos-ash2/t31.0-8/s720x720/919108_10152237723423338_1971457388_o.jpg
p79
sg4
VSome of the best Chai that I had.jpg
p80
sa(dp81
g2
Vhttps://scontent-a.xx.fbcdn.net/hphotos-xpf1/t31.0-8/s720x720/1599853_10152237722273338_963557578_o.jpg
p82
sg4
VThis was the first guy who recognized my accent and innocuously asked so when you going back to S.jpg
p83
sa(dp84
g2
Vhttps://scontent-b.xx.fbcdn.net/hphotos-xpa1/l/t31.0-8/p180x540/1504169_10152237722168338_1955080995_o.jpg
p85
sg4
V1504169_10152237722168338_1955080995_o.jpg
p86
sa(dp87
g2
Vhttps://fbcdn-sphotos-d-a.akamaihd.net/hphotos-ak-xpa1/t31.0-8/p180x540/1537711_10152237721623338_1077166033_o.jpg
p88
sg4
V1537711_10152237721623338_1077166033_o.jpg
p89
sa(dp90
g2
Vhttps://fbcdn-sphotos-c-a.akamaihd.net/hphotos-ak-xpa1/t31.0-8/p180x540/966169_10152237721328338_1382749570_o.jpg
p91
sg4
VMet Rico from Copehagen DenmarkHe asked how Johannes and I met We met 2 days agoA little w.jpg
p92
sa(dp93
g2
Vhttps://fbcdn-sphotos-e-a.akamaihd.net/hphotos-ak-xap1/t31.0-8/q82/p180x540/1501072_10152237721138338_1562106223_o.jpg
p94
sg4
V1501072_10152237721138338_1562106223_o.jpg
p95
sa(dp96
g2
Vhttps://fbcdn-sphotos-g-a.akamaihd.net/hphotos-ak-xap1/t31.0-8/p180x540/1548017_10152237720733338_2146749265_o.jpg
p97
sg4
VWent motorbiking around Krabi with these guys A French German father and son duo and Swiss gave .jpg
p98
sa(dp99
g2
Vhttps://scontent-a.xx.fbcdn.net/hphotos-xpa1/t31.0-8/s720x720/1531615_10152237720608338_104988507_o.jpg
p100
sg4
VSomeone was base jumping off from no more than 200m high That was dangerous.jpg
p101
sa(dp102
g2
Vhttps://fbcdn-sphotos-d-a.akamaihd.net/hphotos-ak-xap1/t31.0-8/p180x540/1009077_10152237720438338_1408711158_o.jpg
p103
sg4
V1009077_10152237720438338_1408711158_o.jpg
p104
sa(dp105
g2
Vhttps://fbcdn-sphotos-f-a.akamaihd.net/hphotos-ak-xfp1/t31.0-8/p180x540/1537780_10152237720143338_1067364753_o.jpg
p106
sg4
VMartin from Innsbruck Austria and Emilie from Brussels Belgium.jpg
p107
sa(dp108
g2
Vhttps://scontent-b.xx.fbcdn.net/hphotos-xpa1/t31.0-8/p180x540/1490775_10152237719773338_258510912_o.jpg
p109
sg4
VBumped into an army mate at the airport.jpg
p110
sa(dp111
g2
Vhttps://fbcdn-sphotos-b-a.akamaihd.net/hphotos-ak-xpa1/t31.0-8/q82/s720x720/1548152_10152237719348338_183362375_o.jpg
p112
sg4
VFire shows along the beach.jpg
p113
sa(dp114
g2
Vhttps://scontent-a.xx.fbcdn.net/hphotos-xfa1/t31.0-8/s720x720/1077575_10152237719258338_545014880_o.jpg
p115
sg4
VFirst glimpses of Krabi.jpg
p116
sa(dp117
g2
Vhttps://fbcdn-sphotos-e-a.akamaihd.net/hphotos-ak-prn2/t31.0-8/s720x720/1015435_10152237719193338_1790390240_o.jpg
p118
sg4
VA little bungalow that I stayed in for 3 nights Quite cosy.jpg
p119
sa(dp120
g2
Vhttps://fbcdn-sphotos-f-a.akamaihd.net/hphotos-ak-xap1/t31.0-8/p180x540/1524426_10152237718048338_1746495087_o.jpg
p121
sg4
V1524426_10152237718048338_1746495087_o.jpg
p122
sa(dp123
g2
Vhttps://scontent-b.xx.fbcdn.net/hphotos-frc3/t31.0-8/q84/s720x720/664300_10152237718028338_1832056904_o.jpg
p124
sg4
V664300_10152237718028338_1832056904_o.jpg
p125
sa(dp126
g2
Vhttps://fbcdn-sphotos-h-a.akamaihd.net/hphotos-ak-xap1/t31.0-8/q83/p180x540/1540499_10152237716773338_1273550518_o.jpg
p127
sg4
V1540499_10152237716773338_1273550518_o.jpg
p128
sa(dp129
g2
Vhttps://scontent-a.xx.fbcdn.net/hphotos-xaf1/t31.0-8/p180x540/1658410_10152237716493338_455565601_o.jpg
p130
sg4
VMet Adrianna from Romania on the long tail boat to my island.jpg
p131
sa(dp132
g2
Vhttps://fbcdn-sphotos-c-a.akamaihd.net/hphotos-ak-xpa1/t31.0-8/q89/s720x720/1502769_10152237713883338_881878206_o.jpg
p133
sg4
VA compass really helps I trekked in the morning for 20 mins in complete darkness to catch the sunr.jpg
p134
sa(dp135
g2
Vhttps://fbcdn-sphotos-a-a.akamaihd.net/hphotos-ak-xap1/t31.0-8/p180x540/1548152_10152237713773338_1584074713_o.jpg
p136
sg4
VWent Deep Water Soloing Looks really adventurous but in all honesty I was scared Climbing up i.jpg
p137
sa(dp138
g2
Vhttps://scontent-a.xx.fbcdn.net/hphotos-xap1/t31.0-8/p180x540/1522570_10152237713698338_968139882_o.jpg
p139
sg4
VTouchdown.jpg
p140
sa(dp141
g2
Vhttps://fbcdn-sphotos-d-a.akamaihd.net/hphotos-ak-xaf1/t31.0-8/s720x720/1614197_10152237712948338_981813153_o.jpg
p142
sg4
V1614197_10152237712948338_981813153_o.jpg
p143
sa(dp144
g2
Vhttps://scontent-b.xx.fbcdn.net/hphotos-xpa1/t31.0-8/s720x720/1547995_10152237712353338_689941618_o.jpg
p145
sg4
VOne guy making his own tobacco cigarettes People there also tried smoking weed and magic mushroom .jpg
p146
sa(dp147
g2
Vhttps://scontent-a.xx.fbcdn.net/hphotos-xpa1/t31.0-8/p180x540/1556359_10152237712043338_430266035_o.jpg
p148
sg4
VMet Johannes from Germany the first night.jpg
p149
sa(dp150
g2
Vhttps://scontent-a.xx.fbcdn.net/hphotos-ash2/v/t1.0-9/p720x720/379660_10152237711978338_1180199267_n.jpg?oh=1f198c16ab55f5a0a5dfd34714174e23&oe=554FB326
p151
sg4
VTheres a certain thrill in climbing which makes me want to come back to it each time but when I aB326
p152
sa(dp153
g2
Vhttps://scontent-a.xx.fbcdn.net/hphotos-frc3/l/t31.0-8/p180x540/1102584_10152237711748338_1315491764_o.jpg
p154
sg4
V1102584_10152237711748338_1315491764_o.jpg
p155
sa(dp156
g2
Vhttps://scontent-a.xx.fbcdn.net/hphotos-xpa1/t31.0-8/s720x720/1599842_10152237711553338_948473725_o.jpg
p157
sg4
V1599842_10152237711553338_948473725_o.jpg
p158
sa(dp159
g2
Vhttps://fbcdn-sphotos-f-a.akamaihd.net/hphotos-ak-frc3/t31.0-8/s720x720/1415210_10152237710753338_794504941_o.jpg
p160
sg4
V1415210_10152237710753338_794504941_o.jpg
p161
sa(dp162
g2
Vhttps://scontent-b.xx.fbcdn.net/hphotos-xpa1/t31.0-8/s720x720/976185_10152237710723338_661222968_o.jpg
p163
sg4
VI had so much time to myself that I had to read books It was disconcerting not having every minute.jpg
p164
sa(dp165
g2
Vhttps://fbcdn-sphotos-b-a.akamaihd.net/hphotos-ak-xpa1/t31.0-8/p180x540/1548092_10152237709518338_763570764_o.jpg
p166
sg4
VMy climbing instructor Nha.jpg
p167
sa(dp168
g2
Vhttps://scontent-b.xx.fbcdn.net/hphotos-prn2/t31.0-8/q85/s720x720/1040297_10152237709253338_385487548_o.jpg
p169
sg4
V1040297_10152237709253338_385487548_o.jpg
p170
sa(dp171
g2
Vhttps://fbcdn-sphotos-a-a.akamaihd.net/hphotos-ak-xpf1/t31.0-8/s720x720/1511846_10152237708463338_683879326_o.jpg
p172
sg4
VThis guy has piercings on his back which has hooks attached His life depends on this when he free .jpg
p173
sa(dp174
g2
Vhttps://scontent-a.xx.fbcdn.net/hphotos-xpf1/t31.0-8/s720x720/1492429_10152237707433338_1666194023_o.jpg
p175
sg4
V1492429_10152237707433338_1666194023_o.jpg
p176
sa(dp177
g2
Vhttps://scontent-b.xx.fbcdn.net/hphotos-xpa1/t31.0-8/p180x540/1025577_10152237707228338_266903017_o.jpg
p178
sg4
V1025577_10152237707228338_266903017_o.jpg
p179
sa(dp180
g2
Vhttps://scontent-b.xx.fbcdn.net/hphotos-xap1/t31.0-8/p180x540/1026137_10152237706873338_1469178296_o.jpg
p181
sg4
VI missed my shuttle bus to the airport in the morning It was 730 my flight was for 1015 and I h.jpg
p182
sa(dp183
g2
Vhttps://scontent-b.xx.fbcdn.net/hphotos-xpf1/t31.0-8/q83/s720x720/1275334_10152237706443338_932084294_o.jpg
p184
sg4
VWe discussed our national politics and voting systems He explains how the constituency system migh.jpg
p185
sa(dp186
g2
Vhttps://fbcdn-sphotos-f-a.akamaihd.net/hphotos-ak-xpa1/t31.0-8/q82/s720x720/1618303_10152237706318338_652309994_o.jpg
p187
sg4
VSlacklines.jpg
p188
sa(dp189
g2
Vhttps://fbcdn-sphotos-g-a.akamaihd.net/hphotos-ak-prn2/t31.0-8/s720x720/1015420_10152237705568338_740349289_o.jpg
p190
sg4
V1015420_10152237705568338_740349289_o.jpg
p191
sa(dp192
g2
Vhttps://scontent-a.xx.fbcdn.net/hphotos-xap1/t31.0-8/p180x540/1654634_10152237705078338_669522533_o.jpg
p193
sg4
VBreakfast with a cat.jpg
p194
sa(dp195
g2
Vhttps://fbcdn-sphotos-c-a.akamaihd.net/hphotos-ak-xfp1/t31.0-8/s720x720/1040585_10152237705008338_987249606_o.jpg
p196
sg4
VPhotoshoot at the least expected place for me in the middle of a National Park.jpg
p197
sa(dp198
g2
Vhttps://scontent-a.xx.fbcdn.net/hphotos-xfp1/t31.0-8/p180x540/1523343_10152237704818338_1238677072_o.jpg
p199
sg4
V1523343_10152237704818338_1238677072_o.jpg
p200
sa(dp201
g2
Vhttps://fbcdn-sphotos-b-a.akamaihd.net/hphotos-ak-xap1/t31.0-8/q81/s720x720/1501345_10152237704343338_354488085_o.jpg
p202
sg4
VSaw them again at the beach How romantic ).jpg
p203
sa(dp204
g2
Vhttps://scontent-b.xx.fbcdn.net/hphotos-xpf1/v/l/t1.0-9/p720x720/1013254_10152237704073338_788217527_n.jpg?oh=ed8c27a682abd3a24e4ebd02595a7e13&oe=554B529B
p205
sg4
V1013254_10152237704073338_788217527_n.jpg?oh=ed8c27a682abd3a24e4ebd02595a7e13&oe=554B529B
p206
sa(dp207
g2
Vhttps://scontent-a.xx.fbcdn.net/hphotos-xpf1/t31.0-8/s720x720/1499014_10152237703148338_2139277750_o.jpg
p208
sg4
VDrove over 38km in Krabi on the bike ) No I dont have any prior experiencePerhaps Ill add a .jpg
p209
sa(dp210
g2
Vhttps://scontent-a.xx.fbcdn.net/hphotos-xpf1/t31.0-8/p180x540/1655782_10152237702803338_1314910522_o.jpg
p211
sg4
V1655782_10152237702803338_1314910522_o.jpg
p212
sa(dp213
g2
Vhttps://scontent-a.xx.fbcdn.net/hphotos-xap1/t31.0-8/s720x720/1501656_10152237701683338_1250859165_o.jpg
p214
sg4
VWent snorkeling too Not as beautiful but a pleasant peaceful experience.jpg
p215
sa(dp216
g2
Vhttps://fbcdn-sphotos-h-a.akamaihd.net/hphotos-ak-xpa1/t31.0-8/p180x540/1655415_10152237700763338_1488642561_o.jpg
p217
sg4
V1655415_10152237700763338_1488642561_o.jpg
p218
sa(dp219
g2
Vhttps://fbcdn-sphotos-b-a.akamaihd.net/hphotos-ak-xpf1/t31.0-8/q84/s720x720/1598986_10152237697303338_625694648_o.jpg
p220
sg4
V1598986_10152237697303338_625694648_o.jpg
p221
sa(dp222
g2
Vhttps://scontent-b.xx.fbcdn.net/hphotos-xpf1/t31.0-8/s720x720/1102390_10152220294568338_873805642_o.jpg
p223
sg4
VThank you Nikita for being an awesome sister ).jpg
p224
sa(dp225
g2
Vhttps://fbcdn-sphotos-e-a.akamaihd.net/hphotos-ak-xpa1/t31.0-8/p480x480/1622497_10152244441033338_269175735_o.jpg
p226
sg4
V1622497_10152244441033338_269175735_o.jpg
p227
sa(dp228
g2
Vhttps://scontent-a.xx.fbcdn.net/hphotos-xpa1/t31.0-8/p480x480/1026124_10152244440823338_1168969560_o.jpg
p229
sg4
V1026124_10152244440823338_1168969560_o.jpg
p230
sa(dp231
g2
Vhttps://scontent-a.xx.fbcdn.net/hphotos-xpf1/t31.0-8/s720x720/1618101_10152237684628338_1272198269_o.jpg
p232
sg4
V1618101_10152237684628338_1272198269_o.jpg
p233
sa(dp234
g2
Vhttps://fbcdn-sphotos-b-a.akamaihd.net/hphotos-ak-xap1/t31.0-8/p480x480/1498088_10152237684578338_12085480_o.jpg
p235
sg4
V1498088_10152237684578338_12085480_o.jpg
p236
sa(dp237
g2
Vhttps://scontent-b.xx.fbcdn.net/hphotos-xpa1/t31.0-8/s720x720/892802_10152220271813338_1567465122_o.jpg
p238
sg4
V892802_10152220271813338_1567465122_o.jpg
p239
sa(dp240
g2
Vhttps://fbcdn-sphotos-d-a.akamaihd.net/hphotos-ak-xpa1/t31.0-8/s720x720/1506316_10152220264958338_726668806_o.jpg
p241
sg4
V1506316_10152220264958338_726668806_o.jpg
p242
sa(dp243
g2
Vhttps://scontent-a.xx.fbcdn.net/hphotos-xpa1/t31.0-8/s720x720/1606316_10152220244458338_63677438_o.jpg
p244
sg4
V1606316_10152220244458338_63677438_o.jpg
p245
sa(dp246
g2
Vhttps://fbcdn-sphotos-e-a.akamaihd.net/hphotos-ak-xfp1/t31.0-8/s720x720/1496280_10152220244153338_1425139415_o.jpg
p247
sg4
V1496280_10152220244153338_1425139415_o.jpg
p248
sa(dp249
g2
Vhttps://scontent-a.xx.fbcdn.net/hphotos-xap1/t31.0-8/s720x720/1493502_10152220243688338_1516508663_o.jpg
p250
sg4
V1493502_10152220243688338_1516508663_o.jpg
p251
sa(dp252
g2
Vhttps://scontent-b.xx.fbcdn.net/hphotos-xpf1/t31.0-8/s720x720/1500991_10152220243523338_5339853_o.jpg
p253
sg4
V1500991_10152220243523338_5339853_o.jpg
p254
sa(dp255
g2
Vhttps://scontent-b.xx.fbcdn.net/hphotos-ash2/t31.0-8/s720x720/1048615_10152220243193338_1376897019_o.jpg
p256
sg4
V1048615_10152220243193338_1376897019_o.jpg
p257
sa(dp258
g2
Vhttps://scontent-a.xx.fbcdn.net/hphotos-xap1/v/t1.0-9/p480x480/1506459_10152164675543338_287134463_n.jpg?oh=9709b09ce3616ff16c1d9a39255a820f&oe=555A0DF2
p259
sg4
V1506459_10152164675543338_287134463_n.jpg?oh=9709b09ce3616ff16c1d9a39255a820f&oe=555A0DF2
p260
sa(dp261
g2
Vhttps://fbcdn-sphotos-g-a.akamaihd.net/hphotos-ak-xap1/t31.0-8/p526x296/1498022_10152164672873338_1679841813_o.jpg
p262
sg4
VHappy Birthday Sarah After 4 years Im finally here for your birthday ).jpg
p263
sa(dp264
g2
Vhttps://scontent-a.xx.fbcdn.net/hphotos-frc3/t31.0-8/s720x720/1091184_10151845292463338_1486800133_o.jpg
p265
sg4
V1091184_10151845292463338_1486800133_o.jpg
p266
sa(dp267
g2
Vhttps://scontent-b.xx.fbcdn.net/hphotos-xpf1/t31.0-8/s720x720/906296_10151621785288338_1916523754_o.jpg
p268
sg4
V906296_10151621785288338_1916523754_o.jpg
p269
sa(dp270
g2
Vhttps://fbcdn-sphotos-f-a.akamaihd.net/hphotos-ak-xpf1/t31.0-8/s720x720/901361_10151621768868338_1606547007_o.jpg
p271
sg4
V901361_10151621768868338_1606547007_o.jpg
p272
sa(dp273
g2
Vhttps://fbcdn-sphotos-g-a.akamaihd.net/hphotos-ak-xfp1/t31.0-8/s720x720/906673_10151621768668338_1988751347_o.jpg
p274
sg4
VMy platoon 1 sergeants.jpg
p275
sa(dp276
g2
Vhttps://scontent-b.xx.fbcdn.net/hphotos-xpa1/t31.0-8/s720x720/904370_10151621768238338_1203710932_o.jpg
p277
sg4
VMy buddy.jpg
p278
sa(dp279
g2
Vhttps://fbcdn-sphotos-a-a.akamaihd.net/hphotos-ak-xfp1/t31.0-8/s720x720/902142_10151621767993338_983486425_o.jpg
p280
sg4
V902142_10151621767993338_983486425_o.jpg
p281
sa(dp282
g2
Vhttps://fbcdn-sphotos-b-a.akamaihd.net/hphotos-ak-xpf1/t31.0-8/s720x720/904240_10151621767618338_1659732958_o.jpg
p283
sg4
V904240_10151621767618338_1659732958_o.jpg
p284
sa(dp285
g2
Vhttps://scontent-a.xx.fbcdn.net/hphotos-xfp1/t31.0-8/s720x720/902783_10151621767218338_439499941_o.jpg
p286
sg4
VCan you find me P.jpg
p287
sa(dp288
g2
Vhttps://fbcdn-sphotos-f-a.akamaihd.net/hphotos-ak-xpa1/t31.0-8/s720x720/906212_10151621766963338_1509404676_o.jpg
p289
sg4
V906212_10151621766963338_1509404676_o.jpg
p290
sa(dp291
g2
Vhttps://fbcdn-sphotos-b-a.akamaihd.net/hphotos-ak-xpf1/t31.0-8/s720x720/901490_10151621766678338_656094186_o.jpg
p292
sg4
VMarch past the reviewing officer and saluting.jpg
p293
sa(dp294
g2
Vhttps://fbcdn-sphotos-d-a.akamaihd.net/hphotos-ak-xpf1/t31.0-8/s720x720/892659_10151621766578338_727930352_o.jpg
p295
sg4
V892659_10151621766578338_727930352_o.jpg
p296
sa(dp297
g2
Vhttps://scontent-a.xx.fbcdn.net/hphotos-xfp1/l/t31.0-8/s720x720/894032_10151621766403338_1034789322_o.jpg
p298
sg4
VPresentation of arms for Chief of Army.jpg
p299
sa(dp300
g2
Vhttps://fbcdn-sphotos-c-a.akamaihd.net/hphotos-ak-xfp1/t31.0-8/s720x720/906760_10151621766288338_2105605442_o.jpg
p301
sg4
V906760_10151621766288338_2105605442_o.jpg
p302
sa(dp303
g2
Vhttps://scontent-a.xx.fbcdn.net/hphotos-xaf1/t31.0-8/s720x720/892338_10151621766073338_1084257787_o.jpg
p304
sg4
V892338_10151621766073338_1084257787_o.jpg
p305
sa(dp306
g2
Vhttps://scontent-a.xx.fbcdn.net/hphotos-ash2/t31.0-8/s720x720/903863_10151621765818338_1340248992_o.jpg
p307
sg4
V903863_10151621765818338_1340248992_o.jpg
p308
sa(dp309
g2
Vhttps://scontent-b.xx.fbcdn.net/hphotos-xpa1/t31.0-8/s720x720/893847_10151621765673338_482316_o.jpg
p310
sg4
V893847_10151621765673338_482316_o.jpg
p311
sa(dp312
g2
Vhttps://fbcdn-sphotos-c-a.akamaihd.net/hphotos-ak-xfp1/t31.0-8/p480x480/903302_10151621765648338_2042035037_o.jpg
p313
sg4
VThe sheer joy of throwing our jockey caps to celebrate the end of Basic Military Training.jpg
p314
sa(dp315
g2
Vhttps://fbcdn-sphotos-e-a.akamaihd.net/hphotos-ak-xfp1/t31.0-8/s720x720/903447_10151621765618338_834232023_o.jpg
p316
sg4
VJust under the floating platform at the concourse area Waiting to go in any moment.jpg
p317
sa(dp318
g2
Vhttps://fbcdn-sphotos-c-a.akamaihd.net/hphotos-ak-xaf1/t31.0-8/s720x720/471819_10151401225208338_518643235_o.jpg
p319
sg4
V471819_10151401225208338_518643235_o.jpg
p320
sa(dp321
g2
Vhttps://fbcdn-sphotos-a-a.akamaihd.net/hphotos-ak-xaf1/v/t1.0-9/p480x480/551812_10151401220018338_1197837623_n.jpg?oh=f9e52d7b0585881a444bd90db07a137d&oe=5549EEA5&__gda__=1432566292_122249af1b5522af491e79f218561e45
p322
sg4
V551812_10151401220018338_1197837623_n.jpg?oh=f9e52d7b0585881a444bd90db07a137d&oe=5549EEA5&__gda__=1432566292_122249af1b5522af491e79f218561e45
p323
sa(dp324
g2
Vhttps://fbcdn-sphotos-b-a.akamaihd.net/hphotos-ak-xfa1/v/t1.0-9/s720x720/246413_10151280626308338_334853536_n.jpg?oh=758f4dba2e8731940133c9bcfca86824&oe=55547AE6&__gda__=1432636598_00056f0643bb01f049df0ba553db0966
p325
sg4
V246413_10151280626308338_334853536_n.jpg?oh=758f4dba2e8731940133c9bcfca86824&oe=55547AE6&__gda__=1432636598_00056f0643bb01f049df0ba553db0966
p326
sa(dp327
g2
Vhttps://scontent-b.xx.fbcdn.net/hphotos-xpf1/t31.0-8/p480x480/467277_10150780528838338_1667542939_o.jpg
p328
sg4
V467277_10150780528838338_1667542939_o.jpg
p329
sa(dp330
g2
Vhttps://scontent-a.xx.fbcdn.net/hphotos-xfp1/t31.0-8/s720x720/322932_10150680672338338_887794789_o.jpg
p331
sg4
V322932_10150680672338338_887794789_o.jpg
p332
sa(dp333
g2
Vhttps://fbcdn-sphotos-d-a.akamaihd.net/hphotos-ak-xpf1/t31.0-8/s720x720/335881_10150680672143338_627345199_o.jpg
p334
sg4
V335881_10150680672143338_627345199_o.jpg
p335
sa(dp336
g2
Vhttps://scontent-b.xx.fbcdn.net/hphotos-xpf1/t31.0-8/s720x720/336945_10150680671873338_887603488_o.jpg
p337
sg4
V336945_10150680671873338_887603488_o.jpg
p338
sa(dp339
g2
Vhttps://fbcdn-sphotos-h-a.akamaihd.net/hphotos-ak-xpf1/t31.0-8/s720x720/327403_10150680671623338_1097155052_o.jpg
p340
sg4
V327403_10150680671623338_1097155052_o.jpg
p341
sa(dp342
g2
Vhttps://scontent-a.xx.fbcdn.net/hphotos-xaf1/t31.0-8/s720x720/339089_10150680671373338_1547342166_o.jpg
p343
sg4
V339089_10150680671373338_1547342166_o.jpg
p344
sa(dp345
g2
Vhttps://fbcdn-sphotos-c-a.akamaihd.net/hphotos-ak-xfp1/t31.0-8/p480x480/324556_10150680671228338_109693269_o.jpg
p346
sg4
V324556_10150680671228338_109693269_o.jpg
p347
sa(dp348
g2
Vhttps://fbcdn-sphotos-d-a.akamaihd.net/hphotos-ak-xpf1/t31.0-8/p480x480/338233_10150680671083338_1749849930_o.jpg
p349
sg4
V338233_10150680671083338_1749849930_o.jpg
p350
sa(dp351
g2
Vhttps://fbcdn-sphotos-f-a.akamaihd.net/hphotos-ak-xpf1/t31.0-8/s720x720/332282_10150680670948338_513219637_o.jpg
p352
sg4
V332282_10150680670948338_513219637_o.jpg
p353
sa(dp354
g2
Vhttps://fbcdn-sphotos-h-a.akamaihd.net/hphotos-ak-xpf1/t31.0-8/p480x480/338913_10150680670748338_1858465496_o.jpg
p355
sg4
V338913_10150680670748338_1858465496_o.jpg
p356
sa(dp357
g2
Vhttps://fbcdn-sphotos-b-a.akamaihd.net/hphotos-ak-xfa1/t31.0-8/s720x720/416051_10150680670553338_1862430038_o.jpg
p358
sg4
V416051_10150680670553338_1862430038_o.jpg
p359
sa(dp360
g2
Vhttps://scontent-a.xx.fbcdn.net/hphotos-xfp1/t31.0-8/s720x720/337677_10150680670393338_787438140_o.jpg
p361
sg4
V337677_10150680670393338_787438140_o.jpg
p362
sa(dp363
g2
Vhttps://scontent-a.xx.fbcdn.net/hphotos-xfp1/t31.0-8/s720x720/335644_10150680670228338_918383153_o.jpg
p364
sg4
V335644_10150680670228338_918383153_o.jpg
p365
sa(dp366
g2
Vhttps://fbcdn-sphotos-g-a.akamaihd.net/hphotos-ak-xfp1/t31.0-8/s720x720/334965_10150680669948338_1770283961_o.jpg
p367
sg4
V334965_10150680669948338_1770283961_o.jpg
p368
sa(dp369
g2
Vhttps://scontent-a.xx.fbcdn.net/hphotos-xaf1/t31.0-8/s720x720/331917_10150680669548338_1625168774_o.jpg
p370
sg4
V331917_10150680669548338_1625168774_o.jpg
p371
sa(dp372
g2
Vhttps://scontent-b.xx.fbcdn.net/hphotos-xfa1/t31.0-8/s720x720/411738_10150680669348338_1840271108_o.jpg
p373
sg4
V411738_10150680669348338_1840271108_o.jpg
p374
sa(dp375
g2
Vhttps://fbcdn-sphotos-f-a.akamaihd.net/hphotos-ak-xfa1/t31.0-8/s720x720/411037_10150680669128338_2038181949_o.jpg
p376
sg4
V411037_10150680669128338_2038181949_o.jpg
p377
sa(dp378
g2
Vhttps://scontent-a.xx.fbcdn.net/hphotos-xfp1/t31.0-8/s720x720/331345_10150680668958338_592678339_o.jpg
p379
sg4
V331345_10150680668958338_592678339_o.jpg
p380
sa(dp381
g2
Vhttps://scontent-a.xx.fbcdn.net/hphotos-xfp1/t31.0-8/s720x720/335186_10150680668658338_483599382_o.jpg
p382
sg4
V335186_10150680668658338_483599382_o.jpg
p383
sa(dp384
g2
Vhttps://fbcdn-sphotos-f-a.akamaihd.net/hphotos-ak-xfa1/t31.0-8/s720x720/332379_10150680668488338_1660603132_o.jpg
p385
sg4
V332379_10150680668488338_1660603132_o.jpg
p386
sa(dp387
g2
Vhttps://fbcdn-sphotos-d-a.akamaihd.net/hphotos-ak-xfa1/t31.0-8/s720x720/413776_10150680668238338_624608907_o.jpg
p388
sg4
V413776_10150680668238338_624608907_o.jpg
p389
sa(dp390
g2
Vhttps://scontent-b.xx.fbcdn.net/hphotos-xpf1/t31.0-8/s720x720/328065_10150680668093338_1835497761_o.jpg
p391
sg4
V328065_10150680668093338_1835497761_o.jpg
p392
sa(dp393
g2
Vhttps://fbcdn-sphotos-h-a.akamaihd.net/hphotos-ak-xpf1/t31.0-8/s720x720/324580_10150680667888338_1242708511_o.jpg
p394
sg4
V324580_10150680667888338_1242708511_o.jpg
p395
sa(dp396
g2
Vhttps://fbcdn-sphotos-e-a.akamaihd.net/hphotos-ak-xaf1/t31.0-8/p480x480/329779_10150680667608338_1340292803_o.jpg
p397
sg4
V329779_10150680667608338_1340292803_o.jpg
p398
sa(dp399
g2
Vhttps://fbcdn-sphotos-f-a.akamaihd.net/hphotos-ak-xpf1/t31.0-8/s720x720/329234_10150680667388338_1154899778_o.jpg
p400
sg4
V329234_10150680667388338_1154899778_o.jpg
p401
sa(dp402
g2
Vhttps://scontent-b.xx.fbcdn.net/hphotos-xfa1/t31.0-8/s720x720/340004_10150680666963338_265828573_o.jpg
p403
sg4
V340004_10150680666963338_265828573_o.jpg
p404
sa(dp405
g2
Vhttps://fbcdn-sphotos-b-a.akamaihd.net/hphotos-ak-xfa1/t31.0-8/s720x720/414381_10150680666853338_1766613028_o.jpg
p406
sg4
V414381_10150680666853338_1766613028_o.jpg
p407
sa(dp408
g2
Vhttps://fbcdn-sphotos-e-a.akamaihd.net/hphotos-ak-xfp1/t31.0-8/s720x720/322193_10150680666568338_28327937_o.jpg
p409
sg4
V322193_10150680666568338_28327937_o.jpg
p410
sa(dp411
g2
Vhttps://fbcdn-sphotos-c-a.akamaihd.net/hphotos-ak-xfp1/t31.0-8/s720x720/337076_10150680666238338_138849289_o.jpg
p412
sg4
V337076_10150680666238338_138849289_o.jpg
p413
sa(dp414
g2
Vhttps://fbcdn-sphotos-a-a.akamaihd.net/hphotos-ak-xfp1/t31.0-8/s720x720/324317_10150680665943338_210227174_o.jpg
p415
sg4
V324317_10150680665943338_210227174_o.jpg
p416
sa(dp417
g2
Vhttps://fbcdn-sphotos-g-a.akamaihd.net/hphotos-ak-xfp1/t31.0-8/s720x720/329235_10150680665663338_896843008_o.jpg
p418
sg4
V329235_10150680665663338_896843008_o.jpg
p419
sa(dp420
g2
Vhttps://fbcdn-sphotos-b-a.akamaihd.net/hphotos-ak-xfa1/t31.0-8/p480x480/411645_10150680665393338_1378721712_o.jpg
p421
sg4
V411645_10150680665393338_1378721712_o.jpg
p422
sa(dp423
g2
Vhttps://fbcdn-sphotos-h-a.akamaihd.net/hphotos-ak-xfa1/t31.0-8/s720x720/416698_10150680665228338_1741398362_o.jpg
p424
sg4
V416698_10150680665228338_1741398362_o.jpg
p425
sa(dp426
g2
Vhttps://scontent-a.xx.fbcdn.net/hphotos-xfp1/t31.0-8/s720x720/329984_10150680665028338_1193663176_o.jpg
p427
sg4
V329984_10150680665028338_1193663176_o.jpg
p428
sa(dp429
g2
Vhttps://scontent-a.xx.fbcdn.net/hphotos-xaf1/t31.0-8/s720x720/322027_10150680664828338_51108859_o.jpg
p430
sg4
V322027_10150680664828338_51108859_o.jpg
p431
sa(dp432
g2
Vhttps://fbcdn-sphotos-h-a.akamaihd.net/hphotos-ak-xpf1/t31.0-8/s720x720/331137_10150680664538338_325500851_o.jpg
p433
sg4
V331137_10150680664538338_325500851_o.jpg
p434
sa(dp435
g2
Vhttps://scontent-b.xx.fbcdn.net/hphotos-xfa1/v/t1.0-9/s720x720/430494_10150680664393338_1973641856_n.jpg?oh=395ed94735fae293d977d651c64f8852&oe=556A3D81
p436
sg4
V430494_10150680664393338_1973641856_n.jpg?oh=395ed94735fae293d977d651c64f8852&oe=556A3D81
p437
sa(dp438
g2
Vhttps://fbcdn-sphotos-f-a.akamaihd.net/hphotos-ak-xfa1/v/t1.0-9/s720x720/421932_10150680664068338_1995197393_n.jpg?oh=dddc9065eb5f2ca5fc732f5dd9a4222d&oe=555309E2&__gda__=1435892692_404db54a638eee4fd5a851d9d4e06250
p439
sg4
V421932_10150680664068338_1995197393_n.jpg?oh=dddc9065eb5f2ca5fc732f5dd9a4222d&oe=555309E2&__gda__=1435892692_404db54a638eee4fd5a851d9d4e06250
p440
sa(dp441
g2
Vhttps://fbcdn-sphotos-g-a.akamaihd.net/hphotos-ak-xaf1/v/t1.0-9/s720x720/417560_10150680663668338_820183404_n.jpg?oh=8161fd2f531eeb001baa03a1676efd41&oe=55614378&__gda__=1431190790_c38b0499fd40b43d588aa07fa6a7ec25
p442
sg4
V417560_10150680663668338_820183404_n.jpg?oh=8161fd2f531eeb001baa03a1676efd41&oe=55614378&__gda__=1431190790_c38b0499fd40b43d588aa07fa6a7ec25
p443
sa(dp444
g2
Vhttps://scontent-b.xx.fbcdn.net/hphotos-xfa1/v/t1.0-9/s720x720/430571_10150680663298338_1991160096_n.jpg?oh=79a380153506b8ae1286b72a55715f83&oe=55632905
p445
sg4
V430571_10150680663298338_1991160096_n.jpg?oh=79a380153506b8ae1286b72a55715f83&oe=55632905
p446
sa(dp447
g2
Vhttps://scontent-b.xx.fbcdn.net/hphotos-xfa1/v/t1.0-9/s720x720/418149_10150680663033338_942230327_n.jpg?oh=352ba37ef3e7797f4e4a63203184cae5&oe=5551DE8D
p448
sg4
V418149_10150680663033338_942230327_n.jpg?oh=352ba37ef3e7797f4e4a63203184cae5&oe=5551DE8D
p449
sa(dp450
g2
Vhttps://scontent-a.xx.fbcdn.net/hphotos-xaf1/v/t1.0-9/s720x720/421437_10150680662738338_2111038057_n.jpg?oh=ce1e6571dec73a36cbac27d1634913e5&oe=5565DCCB
p451
sg4
V421437_10150680662738338_2111038057_n.jpg?oh=ce1e6571dec73a36cbac27d1634913e5&oe=5565DCCB
p452
sa(dp453
g2
Vhttps://fbcdn-sphotos-a-a.akamaihd.net/hphotos-ak-xaf1/v/t1.0-9/s720x720/429595_10150680662503338_1836848029_n.jpg?oh=5a397d3ee847c75be653b6261d19e664&oe=55585CA5&__gda__=1432164628_987fbee05ee0e7cbada151992f57aa60
p454
sg4
V429595_10150680662503338_1836848029_n.jpg?oh=5a397d3ee847c75be653b6261d19e664&oe=55585CA5&__gda__=1432164628_987fbee05ee0e7cbada151992f57aa60
p455
sa(dp456
g2
Vhttps://fbcdn-sphotos-e-a.akamaihd.net/hphotos-ak-xaf1/v/t1.0-9/s720x720/394071_10150680662323338_782056701_n.jpg?oh=7d7f788450eb60d18eb6dccca6238da1&oe=5558BDEA&__gda__=1431687060_5840e256601e4851c192afd886d43b88
p457
sg4
V394071_10150680662323338_782056701_n.jpg?oh=7d7f788450eb60d18eb6dccca6238da1&oe=5558BDEA&__gda__=1431687060_5840e256601e4851c192afd886d43b88
p458
sa(dp459
g2
Vhttps://scontent-b.xx.fbcdn.net/hphotos-xfa1/v/l/t1.0-9/s720x720/428156_10150680662098338_910577725_n.jpg?oh=8510ef6bb6fb4f44f8567f2775a2bd2f&oe=554FC9A4
p460
sg4
V428156_10150680662098338_910577725_n.jpg?oh=8510ef6bb6fb4f44f8567f2775a2bd2f&oe=554FC9A4
p461
sa(dp462
g2
Vhttps://fbcdn-sphotos-a-a.akamaihd.net/hphotos-ak-xaf1/v/t1.0-9/s720x720/421995_10150680661883338_1325005105_n.jpg?oh=8cedd1e9e3fe955a1b69a4613734388c&oe=555A667A&__gda__=1432979147_1514f50082b98cbe628f146dbfea0871
p463
sg4
V421995_10150680661883338_1325005105_n.jpg?oh=8cedd1e9e3fe955a1b69a4613734388c&oe=555A667A&__gda__=1432979147_1514f50082b98cbe628f146dbfea0871
p464
sa(dp465
g2
Vhttps://scontent-a.xx.fbcdn.net/hphotos-xaf1/v/t1.0-9/s720x720/421599_10150680661623338_2112049236_n.jpg?oh=48981d91e468333007bc3543b09e5d92&oe=5567E595
p466
sg4
V421599_10150680661623338_2112049236_n.jpg?oh=48981d91e468333007bc3543b09e5d92&oe=5567E595
p467
sa(dp468
g2
Vhttps://fbcdn-sphotos-b-a.akamaihd.net/hphotos-ak-xfa1/v/t1.0-9/s720x720/396196_10150680661398338_1020762820_n.jpg?oh=b31870989c0b91cdfcaef1f8e71d9eec&oe=5560EFCF&__gda__=1431417337_e2f9775f051d28d76948fd6ffa55333c
p469
sg4
V396196_10150680661398338_1020762820_n.jpg?oh=b31870989c0b91cdfcaef1f8e71d9eec&oe=5560EFCF&__gda__=1431417337_e2f9775f051d28d76948fd6ffa55333c
p470
sa(dp471
g2
Vhttps://scontent-b.xx.fbcdn.net/hphotos-xfa1/v/t1.0-9/s720x720/425848_10150680661153338_1273207215_n.jpg?oh=a4846500ac6ea96846a0b54640f02465&oe=5559011C
p472
sg4
V425848_10150680661153338_1273207215_n.jpg?oh=a4846500ac6ea96846a0b54640f02465&oe=5559011C
p473
sa(dp474
g2
Vhttps://scontent-b.xx.fbcdn.net/hphotos-xfa1/v/t1.0-9/s720x720/429469_10150680660923338_326673157_n.jpg?oh=9d168e82451066bd418893ec37c448fc&oe=5554116B
p475
sg4
V429469_10150680660923338_326673157_n.jpg?oh=9d168e82451066bd418893ec37c448fc&oe=5554116B
p476
sa(dp477
g2
Vhttps://scontent-a.xx.fbcdn.net/hphotos-xaf1/v/t1.0-9/s720x720/422204_10150680660623338_1926505944_n.jpg?oh=537dd5c2a1c93a3fabab773ba8289576&oe=556561E1
p478
sg4
V422204_10150680660623338_1926505944_n.jpg?oh=537dd5c2a1c93a3fabab773ba8289576&oe=556561E1
p479
sa(dp480
g2
Vhttps://scontent-b.xx.fbcdn.net/hphotos-xfa1/v/t1.0-9/s720x720/429877_10150680660188338_1318330568_n.jpg?oh=6f5c3e0b27e7e66b3dbcc4d342fac698&oe=555107DD
p481
sg4
V429877_10150680660188338_1318330568_n.jpg?oh=6f5c3e0b27e7e66b3dbcc4d342fac698&oe=555107DD
p482
sa(dp483
g2
Vhttps://fbcdn-sphotos-f-a.akamaihd.net/hphotos-ak-xfa1/v/t1.0-9/s720x720/422361_10150680659873338_228193425_n.jpg?oh=ed0a83be6b5f63f7ff7ca5872c105ad2&oe=554F0FD1&__gda__=1431864961_cbb874e0128bc696bfdd09140b98189b
p484
sg4
V422361_10150680659873338_228193425_n.jpg?oh=ed0a83be6b5f63f7ff7ca5872c105ad2&oe=554F0FD1&__gda__=1431864961_cbb874e0128bc696bfdd09140b98189b
p485
sa(dp486
g2
Vhttps://fbcdn-sphotos-a-a.akamaihd.net/hphotos-ak-xaf1/v/t1.0-9/s720x720/401105_10150680659233338_30278913_n.jpg?oh=3ae347f2f06d1d3c83ba19d12dafac30&oe=55647DE0&__gda__=1432139719_b02a3aed7c19374be5f0874fef612ac1
p487
sg4
V401105_10150680659233338_30278913_n.jpg?oh=3ae347f2f06d1d3c83ba19d12dafac30&oe=55647DE0&__gda__=1432139719_b02a3aed7c19374be5f0874fef612ac1
p488
sa(dp489
g2
Vhttps://scontent-a.xx.fbcdn.net/hphotos-xaf1/v/t1.0-9/s720x720/420797_10150680658993338_1798419316_n.jpg?oh=a1f3bc6f236f7816c34e201e51e736e9&oe=554E767A
p490
sg4
V420797_10150680658993338_1798419316_n.jpg?oh=a1f3bc6f236f7816c34e201e51e736e9&oe=554E767A
p491
sa(dp492
g2
Vhttps://fbcdn-sphotos-e-a.akamaihd.net/hphotos-ak-xfp1/v/t1.0-9/s720x720/402138_10150680658848338_1516912094_n.jpg?oh=4f02b0b865b23aac8478d9a38f388537&oe=556992B9&__gda__=1432819248_43ffdf4c7ef29035bc83884482602348
p493
sg4
V402138_10150680658848338_1516912094_n.jpg?oh=4f02b0b865b23aac8478d9a38f388537&oe=556992B9&__gda__=1432819248_43ffdf4c7ef29035bc83884482602348
p494
sa(dp495
g2
Vhttps://fbcdn-sphotos-c-a.akamaihd.net/hphotos-ak-xaf1/v/t1.0-9/s720x720/418634_10150680658648338_1368247852_n.jpg?oh=79cb0e107544ab068a73ed6c418c663d&oe=5562AF09&__gda__=1435881144_cb34a4e12ec6ce9787df9bb40c8288c0
p496
sg4
V418634_10150680658648338_1368247852_n.jpg?oh=79cb0e107544ab068a73ed6c418c663d&oe=5562AF09&__gda__=1435881144_cb34a4e12ec6ce9787df9bb40c8288c0
p497
sa(dp498
g2
Vhttps://fbcdn-sphotos-f-a.akamaihd.net/hphotos-ak-xfa1/v/t1.0-9/s720x720/427544_10150680658508338_1573634458_n.jpg?oh=db514fd5eaed0d3947af2c7315556e6a&oe=55959513&__gda__=1430858277_daf631be365e2db0e63afaed82a20d80
p499
sg4
V427544_10150680658508338_1573634458_n.jpg?oh=db514fd5eaed0d3947af2c7315556e6a&oe=55959513&__gda__=1430858277_daf631be365e2db0e63afaed82a20d80
p500
sa(dp501
g2
Vhttps://scontent-b.xx.fbcdn.net/hphotos-xpf1/v/t1.0-9/s720x720/432218_10150680658313338_962338596_n.jpg?oh=eee6acc41d6085709e11f7892768715c&oe=555A9336
p502
sg4
V432218_10150680658313338_962338596_n.jpg?oh=eee6acc41d6085709e11f7892768715c&oe=555A9336
p503
sa(dp504
g2
Vhttps://fbcdn-sphotos-g-a.akamaihd.net/hphotos-ak-xaf1/v/t1.0-9/s720x720/429871_10150680658018338_1773599982_n.jpg?oh=4ab8fbb5c33d75a658c0da4896276e83&oe=5564D468&__gda__=1431848921_3699e3bb09b0305dec917bf4be96c27f
p505
sg4
V429871_10150680658018338_1773599982_n.jpg?oh=4ab8fbb5c33d75a658c0da4896276e83&oe=5564D468&__gda__=1431848921_3699e3bb09b0305dec917bf4be96c27f
p506
sa(dp507
g2
Vhttps://scontent-a.xx.fbcdn.net/hphotos-xfp1/v/t1.0-9/s720x720/429240_10150680657743338_1305954524_n.jpg?oh=5fd5bdc014695cffdef865055f7bd647&oe=55506FD2
p508
sg4
V429240_10150680657743338_1305954524_n.jpg?oh=5fd5bdc014695cffdef865055f7bd647&oe=55506FD2
p509
sa(dp510
g2
Vhttps://scontent-b.xx.fbcdn.net/hphotos-xfa1/v/t1.0-9/s720x720/429512_10150680657478338_949348354_n.jpg?oh=bcaa98211fda9e540093664cd5699dc5&oe=55593572
p511
sg4
V429512_10150680657478338_949348354_n.jpg?oh=bcaa98211fda9e540093664cd5699dc5&oe=55593572
p512
sa(dp513
g2
Vhttps://fbcdn-sphotos-f-a.akamaihd.net/hphotos-ak-xfa1/v/t1.0-9/s720x720/424043_10150680657223338_4362231_n.jpg?oh=4eb58b66e27624b9569f0f8618d609f6&oe=555D5E74&__gda__=1431259603_e2d2cec9e4ea67d5dbbc67f1d95680aa
p514
sg4
V424043_10150680657223338_4362231_n.jpg?oh=4eb58b66e27624b9569f0f8618d609f6&oe=555D5E74&__gda__=1431259603_e2d2cec9e4ea67d5dbbc67f1d95680aa
p515
sa(dp516
g2
Vhttps://scontent-b.xx.fbcdn.net/hphotos-xfa1/v/t1.0-9/s720x720/409569_10150680656953338_5468937_n.jpg?oh=7e79730c2fe34785cdafab8a8f1391d1&oe=55948597
p517
sg4
V409569_10150680656953338_5468937_n.jpg?oh=7e79730c2fe34785cdafab8a8f1391d1&oe=55948597
p518
sa(dp519
g2
Vhttps://scontent-a.xx.fbcdn.net/hphotos-xaf1/v/t1.0-9/s720x720/430372_10150680656698338_776703293_n.jpg?oh=78c9912972114f2df905464a16779fe2&oe=55489864
p520
sg4
V430372_10150680656698338_776703293_n.jpg?oh=78c9912972114f2df905464a16779fe2&oe=55489864
p521
sa(dp522
g2
Vhttps://scontent-b.xx.fbcdn.net/hphotos-xfa1/v/t1.0-9/s720x720/420058_10150680656443338_1381691738_n.jpg?oh=9f6423ce7c496dcf69f1ff8ba68bfb15&oe=5594B160
p523
sg4
V420058_10150680656443338_1381691738_n.jpg?oh=9f6423ce7c496dcf69f1ff8ba68bfb15&oe=5594B160
p524
sa(dp525
g2
Vhttps://fbcdn-sphotos-h-a.akamaihd.net/hphotos-ak-xpf1/v/t1.0-9/s720x720/423511_10150680656253338_1505412711_n.jpg?oh=7655287af046cf5b474ed3b0511b124a&oe=5558C2A9&__gda__=1432796611_ad4adee50649dbca8966ada555da5a87
p526
sg4
V423511_10150680656253338_1505412711_n.jpg?oh=7655287af046cf5b474ed3b0511b124a&oe=5558C2A9&__gda__=1432796611_ad4adee50649dbca8966ada555da5a87
p527
sa(dp528
g2
Vhttps://scontent-a.xx.fbcdn.net/hphotos-xaf1/v/t1.0-9/s720x720/423079_10150680656008338_1696376754_n.jpg?oh=e341e5110c99cbf65cd38f6198599c19&oe=5549894E
p529
sg4
V423079_10150680656008338_1696376754_n.jpg?oh=e341e5110c99cbf65cd38f6198599c19&oe=5549894E
p530
sa(dp531
g2
Vhttps://scontent-a.xx.fbcdn.net/hphotos-xfp1/v/t1.0-9/s720x720/401463_10150680655728338_603188753_n.jpg?oh=8d72a3fab18e5bde38f3f9a814674d59&oe=5569A0FE
p532
sg4
V401463_10150680655728338_603188753_n.jpg?oh=8d72a3fab18e5bde38f3f9a814674d59&oe=5569A0FE
p533
sa(dp534
g2
Vhttps://scontent-a.xx.fbcdn.net/hphotos-xaf1/v/t1.0-9/s720x720/423637_10150680655538338_423481719_n.jpg?oh=a3f4cddeafaaf43eaf5022070603bd10&oe=555A04BA
p535
sg4
V423637_10150680655538338_423481719_n.jpg?oh=a3f4cddeafaaf43eaf5022070603bd10&oe=555A04BA
p536
sa(dp537
g2
Vhttps://fbcdn-sphotos-a-a.akamaihd.net/hphotos-ak-xaf1/v/t1.0-9/s720x720/405489_10150680655383338_1457486178_n.jpg?oh=cee3da8c2d7e09a8c49bcd7369642bff&oe=5557A3AF&__gda__=1435883294_e15be28e90910899f29887689133e067
p538
sg4
V405489_10150680655383338_1457486178_n.jpg?oh=cee3da8c2d7e09a8c49bcd7369642bff&oe=5557A3AF&__gda__=1435883294_e15be28e90910899f29887689133e067
p539
sa(dp540
g2
Vhttps://fbcdn-sphotos-g-a.akamaihd.net/hphotos-ak-xaf1/v/t1.0-9/s720x720/429645_10150680655203338_1466900211_n.jpg?oh=6024212fa79be4f03784d7773dfc2219&oe=55557D04&__gda__=1435760565_97fa75869ba76a061f27894a8c08c9b3
p541
sg4
V429645_10150680655203338_1466900211_n.jpg?oh=6024212fa79be4f03784d7773dfc2219&oe=55557D04&__gda__=1435760565_97fa75869ba76a061f27894a8c08c9b3
p542
sa(dp543
g2
Vhttps://scontent-b.xx.fbcdn.net/hphotos-xfa1/v/t1.0-9/s720x720/403238_10150680654993338_341646522_n.jpg?oh=f186d4c7d05c12803cad19546acf93fd&oe=5560D817
p544
sg4
V403238_10150680654993338_341646522_n.jpg?oh=f186d4c7d05c12803cad19546acf93fd&oe=5560D817
p545
sa(dp546
g2
Vhttps://scontent-b.xx.fbcdn.net/hphotos-xfa1/v/t1.0-9/s720x720/407376_10150680654788338_808208101_n.jpg?oh=b5c3c1cc2482bc9e75c1d64372c458b6&oe=5557F66B
p547
sg4
V407376_10150680654788338_808208101_n.jpg?oh=b5c3c1cc2482bc9e75c1d64372c458b6&oe=5557F66B
p548
sa(dp549
g2
Vhttps://fbcdn-sphotos-d-a.akamaihd.net/hphotos-ak-xfa1/v/t1.0-9/s720x720/405916_10150680654548338_1115021414_n.jpg?oh=78fb60b04be7e55d84ec83d942675143&oe=5593699B&__gda__=1430940077_5c1df4e63acef401ce7ea5760e91668f
p550
sg4
V405916_10150680654548338_1115021414_n.jpg?oh=78fb60b04be7e55d84ec83d942675143&oe=5593699B&__gda__=1430940077_5c1df4e63acef401ce7ea5760e91668f
p551
sa(dp552
g2
Vhttps://scontent-a.xx.fbcdn.net/hphotos-xaf1/v/t1.0-9/s720x720/429560_10150680654343338_748716967_n.jpg?oh=778bd409c0735b856d552a538c1cf199&oe=554C2DB2
p553
sg4
V429560_10150680654343338_748716967_n.jpg?oh=778bd409c0735b856d552a538c1cf199&oe=554C2DB2
p554
sa(dp555
g2
Vhttps://scontent-a.xx.fbcdn.net/hphotos-xaf1/v/t1.0-9/s720x720/431993_10150680654163338_1236088559_n.jpg?oh=2f5e67cb5f529cdf35ca7c8a86780830&oe=5551D121
p556
sg4
V431993_10150680654163338_1236088559_n.jpg?oh=2f5e67cb5f529cdf35ca7c8a86780830&oe=5551D121
p557
sa(dp558
g2
Vhttps://scontent-a.xx.fbcdn.net/hphotos-xaf1/v/t1.0-9/s720x720/424579_10150680653968338_1559296266_n.jpg?oh=c04d6ae1d75313ba5a60a79c793a9b92&oe=5552C27E
p559
sg4
V424579_10150680653968338_1559296266_n.jpg?oh=c04d6ae1d75313ba5a60a79c793a9b92&oe=5552C27E
p560
sa(dp561
g2
Vhttps://scontent-b.xx.fbcdn.net/hphotos-xpf1/v/t1.0-9/s720x720/406528_10150680653743338_1964438293_n.jpg?oh=fd74f73c19b2efa8b089bd89a7e89f5c&oe=55602302
p562
sg4
V406528_10150680653743338_1964438293_n.jpg?oh=fd74f73c19b2efa8b089bd89a7e89f5c&oe=55602302
p563
sa(dp564
g2
Vhttps://fbcdn-sphotos-h-a.akamaihd.net/hphotos-ak-xfa1/v/t1.0-9/s720x720/430690_10150680653498338_1031299562_n.jpg?oh=63067710f5221faea6af9fbc18fe020f&oe=5565CF98&__gda__=1430909358_9b6903b63a20aa8c6217ef3e40308ddb
p565
sg4
V430690_10150680653498338_1031299562_n.jpg?oh=63067710f5221faea6af9fbc18fe020f&oe=5565CF98&__gda__=1430909358_9b6903b63a20aa8c6217ef3e40308ddb
p566
sa(dp567
g2
Vhttps://scontent-a.xx.fbcdn.net/hphotos-xaf1/v/t1.0-9/s720x720/419413_10150680653298338_1840300349_n.jpg?oh=6df85054ca91d3f627f628aaa2b432de&oe=55927EE5
p568
sg4
V419413_10150680653298338_1840300349_n.jpg?oh=6df85054ca91d3f627f628aaa2b432de&oe=55927EE5
p569
sa(dp570
g2
Vhttps://fbcdn-sphotos-a-a.akamaihd.net/hphotos-ak-xaf1/v/t1.0-9/s720x720/430773_10150680653128338_1186942962_n.jpg?oh=fc973ba3d00cb1916087464cd641b27f&oe=5561D58A&__gda__=1431959099_d88f4c2d0e5a272d96481a9074739c9e
p571
sg4
V430773_10150680653128338_1186942962_n.jpg?oh=fc973ba3d00cb1916087464cd641b27f&oe=5561D58A&__gda__=1431959099_d88f4c2d0e5a272d96481a9074739c9e
p572
sa(dp573
g2
Vhttps://fbcdn-sphotos-c-a.akamaihd.net/hphotos-ak-xaf1/v/t1.0-9/s720x720/420015_10150680652948338_233510670_n.jpg?oh=68b834315017d10bddf15bb4ee972efb&oe=55567F16&__gda__=1430986088_2ce761c04b871ab68666fa389bc93d7c
p574
sg4
V420015_10150680652948338_233510670_n.jpg?oh=68b834315017d10bddf15bb4ee972efb&oe=55567F16&__gda__=1430986088_2ce761c04b871ab68666fa389bc93d7c
p575
sa(dp576
g2
Vhttps://scontent-b.xx.fbcdn.net/hphotos-xpf1/v/t1.0-9/s720x720/409096_10150680652718338_2073716755_n.jpg?oh=5c1bffdd098c281a7da51ec668f1a7f5&oe=555CFD8B
p577
sg4
V409096_10150680652718338_2073716755_n.jpg?oh=5c1bffdd098c281a7da51ec668f1a7f5&oe=555CFD8B
p578
sa(dp579
g2
Vhttps://fbcdn-sphotos-b-a.akamaihd.net/hphotos-ak-frc3/v/t1.0-9/s720x720/401299_10150680652498338_719492836_n.jpg?oh=bb706ba8dfe879e8fd947f92c5b66c46&oe=55624586&__gda__=1432855190_f8ad48fadddf4144a9188d338a1c8021
p580
sg4
V401299_10150680652498338_719492836_n.jpg?oh=bb706ba8dfe879e8fd947f92c5b66c46&oe=55624586&__gda__=1432855190_f8ad48fadddf4144a9188d338a1c8021
p581
sa(dp582
g2
Vhttps://fbcdn-sphotos-d-a.akamaihd.net/hphotos-ak-xpf1/v/t1.0-9/s720x720/409047_10150680652373338_1590615125_n.jpg?oh=58f83bb03aecb42a3cdf0c0551983e50&oe=55560F8E&__gda__=1432713188_0943f75df0db158a704847b6f089f1b6
p583
sg4
V409047_10150680652373338_1590615125_n.jpg?oh=58f83bb03aecb42a3cdf0c0551983e50&oe=55560F8E&__gda__=1432713188_0943f75df0db158a704847b6f089f1b6
p584
sa(dp585
g2
Vhttps://fbcdn-sphotos-f-a.akamaihd.net/hphotos-ak-xfa1/v/t1.0-9/s720x720/420393_10150680652168338_2068109359_n.jpg?oh=24e83766a93c4fab8294fd8a6197e2c4&oe=55491439&__gda__=1431029519_42785b0eba54cbb80b4bd550e47ee612
p586
sg4
V420393_10150680652168338_2068109359_n.jpg?oh=24e83766a93c4fab8294fd8a6197e2c4&oe=55491439&__gda__=1431029519_42785b0eba54cbb80b4bd550e47ee612
p587
sa(dp588
g2
Vhttps://fbcdn-sphotos-g-a.akamaihd.net/hphotos-ak-xaf1/v/t1.0-9/s720x720/429803_10150680652043338_1916954278_n.jpg?oh=b605d6d37bc5e06dacf4bd10b6a248d6&oe=55651721&__gda__=1431389840_afc3ca4e9edc0c6e320cfba70e76b094
p589
sg4
V429803_10150680652043338_1916954278_n.jpg?oh=b605d6d37bc5e06dacf4bd10b6a248d6&oe=55651721&__gda__=1431389840_afc3ca4e9edc0c6e320cfba70e76b094
p590
sa(dp591
g2
Vhttps://fbcdn-sphotos-a-a.akamaihd.net/hphotos-ak-xaf1/v/t1.0-9/s720x720/430737_10150680651843338_2097282279_n.jpg?oh=ce8adbd0d052f47207fe7212d9030da2&oe=555AB4D3&__gda__=1430876514_200925b0b03d250f03a89216be3704ff
p592
sg4
V430737_10150680651843338_2097282279_n.jpg?oh=ce8adbd0d052f47207fe7212d9030da2&oe=555AB4D3&__gda__=1430876514_200925b0b03d250f03a89216be3704ff
p593
sa(dp594
g2
Vhttps://fbcdn-sphotos-b-a.akamaihd.net/hphotos-ak-xfa1/v/t1.0-9/s720x720/395971_10150680651713338_679889860_n.jpg?oh=6a0838582cdbcc4f413ba30f6619b944&oe=559409B4&__gda__=1430952932_ff762fe73c17c453b3b539b3f415dfa5
p595
sg4
V395971_10150680651713338_679889860_n.jpg?oh=6a0838582cdbcc4f413ba30f6619b944&oe=559409B4&__gda__=1430952932_ff762fe73c17c453b3b539b3f415dfa5
p596
sa(dp597
g2
Vhttps://fbcdn-sphotos-f-a.akamaihd.net/hphotos-ak-xfa1/v/t1.0-9/s720x720/430547_10150680651423338_215764964_n.jpg?oh=07ed807ad0141d86c5e79250c8f6194b&oe=5566DCC5&__gda__=1432401813_3332fc5cbcd424d686ce12e7a8f41be3
p598
sg4
V430547_10150680651423338_215764964_n.jpg?oh=07ed807ad0141d86c5e79250c8f6194b&oe=5566DCC5&__gda__=1432401813_3332fc5cbcd424d686ce12e7a8f41be3
p599
sa(dp600
g2
Vhttps://fbcdn-sphotos-a-a.akamaihd.net/hphotos-ak-xaf1/v/t1.0-9/s720x720/428319_10150680651248338_53026364_n.jpg?oh=2b63fc2808ac567bc0f6229b56d7373d&oe=5554DE2E&__gda__=1431264777_2fe3bf88d15f3cdeaddf2d520170a3f9
p601
sg4
V428319_10150680651248338_53026364_n.jpg?oh=2b63fc2808ac567bc0f6229b56d7373d&oe=5554DE2E&__gda__=1431264777_2fe3bf88d15f3cdeaddf2d520170a3f9
p602
sa(dp603
g2
Vhttps://fbcdn-sphotos-g-a.akamaihd.net/hphotos-ak-xaf1/v/t1.0-9/s720x720/428297_10150680651068338_1826567621_n.jpg?oh=d23ea3b9e2a11708b14ea174a598ef88&oe=5560475B&__gda__=1435900906_8081e261b83c94d33b5c899e93d50f1f
p604
sg4
V428297_10150680651068338_1826567621_n.jpg?oh=d23ea3b9e2a11708b14ea174a598ef88&oe=5560475B&__gda__=1435900906_8081e261b83c94d33b5c899e93d50f1f
p605
sa(dp606
g2
Vhttps://scontent-a.xx.fbcdn.net/hphotos-xaf1/v/t1.0-9/s720x720/424656_10150680650823338_364933385_n.jpg?oh=51d3f773906c0fbb594f1b6da254f6c7&oe=5566C35E
p607
sg4
V424656_10150680650823338_364933385_n.jpg?oh=51d3f773906c0fbb594f1b6da254f6c7&oe=5566C35E
p608
sa(dp609
g2
Vhttps://fbcdn-sphotos-c-a.akamaihd.net/hphotos-ak-xaf1/v/t1.0-9/s720x720/419057_10150680650658338_182882936_n.jpg?oh=f71bae22e9a39bbd135f764917288d2c&oe=554BE5BE&__gda__=1431139008_2cdf2f474580cc559511f84d0596f8e6
p610
sg4
V419057_10150680650658338_182882936_n.jpg?oh=f71bae22e9a39bbd135f764917288d2c&oe=554BE5BE&__gda__=1431139008_2cdf2f474580cc559511f84d0596f8e6
p611
sa(dp612
g2
Vhttps://fbcdn-sphotos-h-a.akamaihd.net/hphotos-ak-xfa1/v/t1.0-9/s720x720/424245_10150680650453338_411615873_n.jpg?oh=24cb3a2bb3c8b2233ff4765d12d55704&oe=556A7340&__gda__=1431928592_ccd7824d82ea01786571130191fbd443
p613
sg4
V424245_10150680650453338_411615873_n.jpg?oh=24cb3a2bb3c8b2233ff4765d12d55704&oe=556A7340&__gda__=1431928592_ccd7824d82ea01786571130191fbd443
p614
sa(dp615
g2
Vhttps://scontent-b.xx.fbcdn.net/hphotos-xfa1/v/t1.0-9/s720x720/403223_10150680650308338_1708152729_n.jpg?oh=6382af5e33583fa4661266f6a761f0a2&oe=5563A769
p616
sg4
V403223_10150680650308338_1708152729_n.jpg?oh=6382af5e33583fa4661266f6a761f0a2&oe=5563A769
p617
sa(dp618
g2
Vhttps://scontent-a.xx.fbcdn.net/hphotos-xaf1/v/t1.0-9/s720x720/426500_10150680650118338_202925079_n.jpg?oh=2d3644688a063d9e5b179a9c261a512b&oe=5569A788
p619
sg4
V426500_10150680650118338_202925079_n.jpg?oh=2d3644688a063d9e5b179a9c261a512b&oe=5569A788
p620
sa(dp621
g2
Vhttps://fbcdn-sphotos-g-a.akamaihd.net/hphotos-ak-xaf1/v/t1.0-9/s720x720/420637_10150680649968338_802984187_n.jpg?oh=d4990805390f761bd549d5e6a28c0ac5&oe=556A73F0&__gda__=1431851662_9304ec1c1ad669b1d2404a8d0078703b
p622
sg4
V420637_10150680649968338_802984187_n.jpg?oh=d4990805390f761bd549d5e6a28c0ac5&oe=556A73F0&__gda__=1431851662_9304ec1c1ad669b1d2404a8d0078703b
p623
sa(dp624
g2
Vhttps://scontent-a.xx.fbcdn.net/hphotos-xaf1/v/t1.0-9/s720x720/398637_10150680649728338_1000973854_n.jpg?oh=71ee6f7726a2c6b3af73655eafb5d7e0&oe=5569843C
p625
sg4
V398637_10150680649728338_1000973854_n.jpg?oh=71ee6f7726a2c6b3af73655eafb5d7e0&oe=5569843C
p626
sa(dp627
g2
Vhttps://fbcdn-sphotos-b-a.akamaihd.net/hphotos-ak-xfa1/v/t1.0-9/s720x720/421344_10150680649578338_547395586_n.jpg?oh=ba34b948fdd8c65bd2f818bd57d3f9e2&oe=5564BE7F&__gda__=1431541807_4cae2fd8f731090d582a542dfad7f1b0
p628
sg4
V421344_10150680649578338_547395586_n.jpg?oh=ba34b948fdd8c65bd2f818bd57d3f9e2&oe=5564BE7F&__gda__=1431541807_4cae2fd8f731090d582a542dfad7f1b0
p629
sa(dp630
g2
Vhttps://fbcdn-sphotos-h-a.akamaihd.net/hphotos-ak-xfa1/v/t1.0-9/s720x720/425880_10150680649378338_1153132841_n.jpg?oh=596209960350153e79dfd72ff248d4ba&oe=5593C564&__gda__=1432014162_14bae63791eb4ab08c23275019769b93
p631
sg4
V425880_10150680649378338_1153132841_n.jpg?oh=596209960350153e79dfd72ff248d4ba&oe=5593C564&__gda__=1432014162_14bae63791eb4ab08c23275019769b93
p632
sa(dp633
g2
Vhttps://scontent-b.xx.fbcdn.net/hphotos-xpf1/v/t1.0-9/s720x720/420531_10150680649098338_1533300919_n.jpg?oh=5db6bee980964160dea1572334d99588&oe=554EDE17
p634
sg4
V420531_10150680649098338_1533300919_n.jpg?oh=5db6bee980964160dea1572334d99588&oe=554EDE17
p635
sa(dp636
g2
Vhttps://scontent-a.xx.fbcdn.net/hphotos-xaf1/v/t1.0-9/s720x720/426841_10150680648868338_1314553234_n.jpg?oh=fa374c61d1aa13072ace817df9569ebb&oe=5554BCC7
p637
sg4
V426841_10150680648868338_1314553234_n.jpg?oh=fa374c61d1aa13072ace817df9569ebb&oe=5554BCC7
p638
sa(dp639
g2
Vhttps://fbcdn-sphotos-d-a.akamaihd.net/hphotos-ak-xfa1/v/t1.0-9/s720x720/422217_10150680648668338_1369705599_n.jpg?oh=807a0bbd9cece848b1d60ab43e547d40&oe=554FE8D4&__gda__=1435788002_b5dbb256c0035b6d3eba256ed018cdf2
p640
sg4
V422217_10150680648668338_1369705599_n.jpg?oh=807a0bbd9cece848b1d60ab43e547d40&oe=554FE8D4&__gda__=1435788002_b5dbb256c0035b6d3eba256ed018cdf2
p641
sa(dp642
g2
Vhttps://fbcdn-sphotos-f-a.akamaihd.net/hphotos-ak-xfa1/v/t1.0-9/s720x720/166936_10150680648513338_36087996_n.jpg?oh=17f7f5a90486a872408f1c0440a639fc&oe=5562ED0B&__gda__=1432156606_094ed34c541b603701ed834e4f4d49f1
p643
sg4
V166936_10150680648513338_36087996_n.jpg?oh=17f7f5a90486a872408f1c0440a639fc&oe=5562ED0B&__gda__=1432156606_094ed34c541b603701ed834e4f4d49f1
p644
sa(dp645
g2
Vhttps://scontent-b.xx.fbcdn.net/hphotos-xfa1/v/t1.0-9/s720x720/431455_10150680648388338_1718266575_n.jpg?oh=8ca8a3173e747c6cd5200c7235001750&oe=55681385
p646
sg4
V431455_10150680648388338_1718266575_n.jpg?oh=8ca8a3173e747c6cd5200c7235001750&oe=55681385
p647
sa(dp648
g2
Vhttps://fbcdn-sphotos-b-a.akamaihd.net/hphotos-ak-xfa1/v/t1.0-9/s720x720/420216_10150680648243338_1299875386_n.jpg?oh=20586ee74f518b641301da7669e9e0b3&oe=554E5484&__gda__=1432362162_1cd4acaf3248a42e3bc0e118a0fecc78
p649
sg4
V420216_10150680648243338_1299875386_n.jpg?oh=20586ee74f518b641301da7669e9e0b3&oe=554E5484&__gda__=1432362162_1cd4acaf3248a42e3bc0e118a0fecc78
p650
sa(dp651
g2
Vhttps://fbcdn-sphotos-e-a.akamaihd.net/hphotos-ak-xaf1/v/t1.0-9/s720x720/428357_10150680648033338_702713926_n.jpg?oh=5b5065884db1acdf1c626e8d273c4a0c&oe=555DA868&__gda__=1431686166_ae619a5926f8b13d2846dc5ccb0ba45f
p652
sg4
V428357_10150680648033338_702713926_n.jpg?oh=5b5065884db1acdf1c626e8d273c4a0c&oe=555DA868&__gda__=1431686166_ae619a5926f8b13d2846dc5ccb0ba45f
p653
sa(dp654
g2
Vhttps://fbcdn-sphotos-g-a.akamaihd.net/hphotos-ak-xaf1/v/t1.0-9/s720x720/419430_10150680647883338_1897818585_n.jpg?oh=1027b7e34939869383187e4b12d9e74c&oe=55555327&__gda__=1432862358_aa930c9c7bbb350ae945da334d9269c1
p655
sg4
V419430_10150680647883338_1897818585_n.jpg?oh=1027b7e34939869383187e4b12d9e74c&oe=55555327&__gda__=1432862358_aa930c9c7bbb350ae945da334d9269c1
p656
sa(dp657
g2
Vhttps://scontent-a.xx.fbcdn.net/hphotos-xaf1/v/t1.0-9/s720x720/403126_10150680647678338_1029454387_n.jpg?oh=ee76d02483ad126305b33593b2736f13&oe=554D128E
p658
sg4
V403126_10150680647678338_1029454387_n.jpg?oh=ee76d02483ad126305b33593b2736f13&oe=554D128E
p659
sa(dp660
g2
Vhttps://scontent-b.xx.fbcdn.net/hphotos-xpf1/v/t1.0-9/s720x720/406433_10150680647493338_476301007_n.jpg?oh=529023ae6889b0193212c7ba1edec455&oe=554F645F
p661
sg4
V406433_10150680647493338_476301007_n.jpg?oh=529023ae6889b0193212c7ba1edec455&oe=554F645F
p662
sa(dp663
g2
Vhttps://fbcdn-sphotos-c-a.akamaihd.net/hphotos-ak-xfp1/v/t1.0-9/s720x720/408967_10150680647303338_1846104002_n.jpg?oh=1b399910c25848670e8a6a1b341335bf&oe=55588851&__gda__=1432984280_20f73526870d5e77b9a8a38cb5bad721
p664
sg4
V408967_10150680647303338_1846104002_n.jpg?oh=1b399910c25848670e8a6a1b341335bf&oe=55588851&__gda__=1432984280_20f73526870d5e77b9a8a38cb5bad721
p665
sa(dp666
g2
Vhttps://fbcdn-sphotos-e-a.akamaihd.net/hphotos-ak-xfp1/v/t1.0-9/s720x720/429372_10150680647108338_1950088332_n.jpg?oh=0fc6fd588bf5fea74aaa547907caa819&oe=555EEB84&__gda__=1430793741_84edf721e3d236cb4d09c3c769e8ec2d
p667
sg4
V429372_10150680647108338_1950088332_n.jpg?oh=0fc6fd588bf5fea74aaa547907caa819&oe=555EEB84&__gda__=1430793741_84edf721e3d236cb4d09c3c769e8ec2d
p668
sa(dp669
g2
Vhttps://fbcdn-sphotos-f-a.akamaihd.net/hphotos-ak-xfa1/v/t1.0-9/s720x720/407242_10150680646878338_122615069_n.jpg?oh=717b5be4280a65005549af6c25d932ce&oe=555511C0&__gda__=1432378256_47d819358e59daaf416c3a08070eb05f
p670
sg4
V407242_10150680646878338_122615069_n.jpg?oh=717b5be4280a65005549af6c25d932ce&oe=555511C0&__gda__=1432378256_47d819358e59daaf416c3a08070eb05f
p671
sa(dp672
g2
Vhttps://fbcdn-sphotos-f-a.akamaihd.net/hphotos-ak-xfa1/v/t1.0-9/s720x720/431055_10150680646748338_77535074_n.jpg?oh=6cca95f96a540a8f691f315adbcc780f&oe=556558DA&__gda__=1431962735_02a8d469accfab20d66845b9ac2963f4
p673
sg4
V431055_10150680646748338_77535074_n.jpg?oh=6cca95f96a540a8f691f315adbcc780f&oe=556558DA&__gda__=1431962735_02a8d469accfab20d66845b9ac2963f4
p674
sa(dp675
g2
Vhttps://fbcdn-sphotos-d-a.akamaihd.net/hphotos-ak-xfa1/v/t1.0-9/s720x720/420171_10150680646528338_1323413354_n.jpg?oh=f940461bc3975c3ebe1b0db28cde70ab&oe=5593D741&__gda__=1430844535_c5f66fdef6511d796bca499e19a4c042
p676
sg4
V420171_10150680646528338_1323413354_n.jpg?oh=f940461bc3975c3ebe1b0db28cde70ab&oe=5593D741&__gda__=1430844535_c5f66fdef6511d796bca499e19a4c042
p677
sa(dp678
g2
Vhttps://fbcdn-sphotos-h-a.akamaihd.net/hphotos-ak-xfa1/v/t1.0-9/s720x720/396444_10150680646343338_66327652_n.jpg?oh=fb4278039c60f0b461d066d81fae32c2&oe=556623D5&__gda__=1431042144_f83d9beec7f3a895c9cd8dc790579406
p679
sg4
V396444_10150680646343338_66327652_n.jpg?oh=fb4278039c60f0b461d066d81fae32c2&oe=556623D5&__gda__=1431042144_f83d9beec7f3a895c9cd8dc790579406
p680
sa(dp681
g2
Vhttps://fbcdn-sphotos-c-a.akamaihd.net/hphotos-ak-xaf1/v/t1.0-9/s720x720/405402_10150680646128338_36340185_n.jpg?oh=b972a6ed18f782b8e5abf1138fa076cb&oe=5550E58C&__gda__=1432122539_cc23070a241a3c14bb067922c7411066
p682
sg4
V405402_10150680646128338_36340185_n.jpg?oh=b972a6ed18f782b8e5abf1138fa076cb&oe=5550E58C&__gda__=1432122539_cc23070a241a3c14bb067922c7411066
p683
sa(dp684
g2
Vhttps://scontent-a.xx.fbcdn.net/hphotos-xaf1/v/t1.0-9/s720x720/423103_10150680645903338_1341244123_n.jpg?oh=179d3b1c9f00d61483488f74dc9fefb5&oe=555398B1
p685
sg4
V423103_10150680645903338_1341244123_n.jpg?oh=179d3b1c9f00d61483488f74dc9fefb5&oe=555398B1
p686
sa(dp687
g2
Vhttps://fbcdn-sphotos-g-a.akamaihd.net/hphotos-ak-xaf1/v/t1.0-9/s720x720/429895_10150680645698338_1505655771_n.jpg?oh=bed5e22a98ee8a96eb10d27d6874d132&oe=55957865&__gda__=1435922132_a9866d0327e191a759d2772cb7c9d429
p688
sg4
V429895_10150680645698338_1505655771_n.jpg?oh=bed5e22a98ee8a96eb10d27d6874d132&oe=55957865&__gda__=1435922132_a9866d0327e191a759d2772cb7c9d429
p689
sa(dp690
g2
Vhttps://scontent-b.xx.fbcdn.net/hphotos-xfa1/v/t1.0-9/s720x720/425710_10150680645503338_1758691468_n.jpg?oh=6f4fdd66ba6975c2225cf5bfeaffea82&oe=55527A12
p691
sg4
V425710_10150680645503338_1758691468_n.jpg?oh=6f4fdd66ba6975c2225cf5bfeaffea82&oe=55527A12
p692
sa(dp693
g2
Vhttps://scontent-b.xx.fbcdn.net/hphotos-xfa1/v/t1.0-9/s720x720/420815_10150680645303338_220092981_n.jpg?oh=19b1ea3cdf3a875882cdd69a582e52c7&oe=55639FBB
p694
sg4
V420815_10150680645303338_220092981_n.jpg?oh=19b1ea3cdf3a875882cdd69a582e52c7&oe=55639FBB
p695
sa(dp696
g2
Vhttps://fbcdn-sphotos-e-a.akamaihd.net/hphotos-ak-xaf1/v/t1.0-9/s720x720/428985_10150680645088338_1738015014_n.jpg?oh=9782e00cd3367e47bbb86ce0265e59f1&oe=5566D034&__gda__=1430932357_27aca75b51ebc912c45902c3ce1d740e
p697
sg4
V428985_10150680645088338_1738015014_n.jpg?oh=9782e00cd3367e47bbb86ce0265e59f1&oe=5566D034&__gda__=1430932357_27aca75b51ebc912c45902c3ce1d740e
p698
sa(dp699
g2
Vhttps://fbcdn-sphotos-c-a.akamaihd.net/hphotos-ak-xaf1/v/t1.0-9/s720x720/420899_10150680644958338_1116204491_n.jpg?oh=c4ebce595fa71ba150585c7ee14d9e61&oe=5569BC7E&__gda__=1432991695_8175be23de688ba93eda1cc82dab05b6
p700
sg4
V420899_10150680644958338_1116204491_n.jpg?oh=c4ebce595fa71ba150585c7ee14d9e61&oe=5569BC7E&__gda__=1432991695_8175be23de688ba93eda1cc82dab05b6
p701
sa(dp702
g2
Vhttps://scontent-a.xx.fbcdn.net/hphotos-xaf1/v/t1.0-9/s720x720/395408_10150680644803338_2121069022_n.jpg?oh=5c4b5e174bc61ab6aafecf84f6eda012&oe=55645893
p703
sg4
V395408_10150680644803338_2121069022_n.jpg?oh=5c4b5e174bc61ab6aafecf84f6eda012&oe=55645893
p704
sa(dp705
g2
Vhttps://fbcdn-sphotos-g-a.akamaihd.net/hphotos-ak-xaf1/v/t1.0-9/s720x720/430791_10150680644508338_1005004046_n.jpg?oh=dfb9338cc8b3b5c2a60661940b43802f&oe=55533144&__gda__=1431319285_19ea531fcb32fc57740f87764e161254
p706
sg4
V430791_10150680644508338_1005004046_n.jpg?oh=dfb9338cc8b3b5c2a60661940b43802f&oe=55533144&__gda__=1431319285_19ea531fcb32fc57740f87764e161254
p707
sa(dp708
g2
Vhttps://scontent-b.xx.fbcdn.net/hphotos-xfa1/v/t1.0-9/s720x720/425916_10150680644318338_2117663269_n.jpg?oh=9159b5c7475f6b37eb6b4a4e9a93beaa&oe=554D4D55
p709
sg4
V425916_10150680644318338_2117663269_n.jpg?oh=9159b5c7475f6b37eb6b4a4e9a93beaa&oe=554D4D55
p710
sa(dp711
g2
Vhttps://fbcdn-sphotos-b-a.akamaihd.net/hphotos-ak-xfa1/v/t1.0-9/s720x720/426302_10150680644078338_296817102_n.jpg?oh=fa251ca795e31f3a2587ade5dd5625d1&oe=5595F60E&__gda__=1435784286_8468fa3f3cfe98343387c38892fd30f3
p712
sg4
V426302_10150680644078338_296817102_n.jpg?oh=fa251ca795e31f3a2587ade5dd5625d1&oe=5595F60E&__gda__=1435784286_8468fa3f3cfe98343387c38892fd30f3
p713
sa(dp714
g2
Vhttps://scontent-b.xx.fbcdn.net/hphotos-xfa1/v/t1.0-9/s720x720/403185_10150680643858338_576033751_n.jpg?oh=ad2c3600fc47d7dd3633c0f74c1bd350&oe=55935E60
p715
sg4
V403185_10150680643858338_576033751_n.jpg?oh=ad2c3600fc47d7dd3633c0f74c1bd350&oe=55935E60
p716
sa(dp717
g2
Vhttps://fbcdn-sphotos-a-a.akamaihd.net/hphotos-ak-xaf1/v/t1.0-9/s720x720/425973_10150680643633338_1549696083_n.jpg?oh=1ab68999c40443d43387db80ef35dad9&oe=55544886&__gda__=1435780663_3c5528e08a9a0efa81d1c9e5c09d2ad5
p718
sg4
V425973_10150680643633338_1549696083_n.jpg?oh=1ab68999c40443d43387db80ef35dad9&oe=55544886&__gda__=1435780663_3c5528e08a9a0efa81d1c9e5c09d2ad5
p719
sa(dp720
g2
Vhttps://scontent-a.xx.fbcdn.net/hphotos-xaf1/v/t1.0-9/s720x720/419609_10150680643488338_180727659_n.jpg?oh=6635232479e4196666808561309c06c7&oe=55971B86
p721
sg4
V419609_10150680643488338_180727659_n.jpg?oh=6635232479e4196666808561309c06c7&oe=55971B86
p722
sa(dp723
g2
Vhttps://fbcdn-sphotos-h-a.akamaihd.net/hphotos-ak-xfa1/v/t1.0-9/s720x720/405438_10150680643253338_1535561558_n.jpg?oh=93c4b39307969a9b8d08e15d165e62b0&oe=55644B1A&__gda__=1431705132_133f6bff3c3a5cbe534b247c70eea49a
p724
sg4
V405438_10150680643253338_1535561558_n.jpg?oh=93c4b39307969a9b8d08e15d165e62b0&oe=55644B1A&__gda__=1431705132_133f6bff3c3a5cbe534b247c70eea49a
p725
sa(dp726
g2
Vhttps://fbcdn-sphotos-d-a.akamaihd.net/hphotos-ak-xfa1/v/t1.0-9/s720x720/425647_10150680642973338_1444994281_n.jpg?oh=b9e8dda7d5975eb9c86bec5c54ddc915&oe=5561D711&__gda__=1435897127_84b2ec689eb172f6851b1a2e05388b6b
p727
sg4
V425647_10150680642973338_1444994281_n.jpg?oh=b9e8dda7d5975eb9c86bec5c54ddc915&oe=5561D711&__gda__=1435897127_84b2ec689eb172f6851b1a2e05388b6b
p728
sa(dp729
g2
Vhttps://scontent-a.xx.fbcdn.net/hphotos-xaf1/v/t1.0-9/s720x720/399940_10150680642838338_984426535_n.jpg?oh=1c7ef453ebf38376fda4af6a0b717b6c&oe=55650F09
p730
sg4
V399940_10150680642838338_984426535_n.jpg?oh=1c7ef453ebf38376fda4af6a0b717b6c&oe=55650F09
p731
sa(dp732
g2
Vhttps://scontent-a.xx.fbcdn.net/hphotos-xaf1/v/t1.0-9/s720x720/430486_10150680642623338_1151689320_n.jpg?oh=5aca6fb596eac28641518dccf5ec3313&oe=554F0253
p733
sg4
V430486_10150680642623338_1151689320_n.jpg?oh=5aca6fb596eac28641518dccf5ec3313&oe=554F0253
p734
sa(dp735
g2
Vhttps://scontent-a.xx.fbcdn.net/hphotos-xaf1/v/t1.0-9/s720x720/424633_10150680642223338_232961238_n.jpg?oh=0dd3f799fbb19dcfa07072899d1c6d5e&oe=554C4774
p736
sg4
V424633_10150680642223338_232961238_n.jpg?oh=0dd3f799fbb19dcfa07072899d1c6d5e&oe=554C4774
p737
sa(dp738
g2
Vhttps://scontent-b.xx.fbcdn.net/hphotos-xfa1/v/t1.0-9/s720x720/426371_10150680641748338_1357115166_n.jpg?oh=900128208225259f2a610b6a25e1e94a&oe=554E0120
p739
sg4
V426371_10150680641748338_1357115166_n.jpg?oh=900128208225259f2a610b6a25e1e94a&oe=554E0120
p740
sa(dp741
g2
Vhttps://fbcdn-sphotos-h-a.akamaihd.net/hphotos-ak-xfa1/v/t1.0-9/s720x720/417333_10150680641383338_1819662107_n.jpg?oh=9c4c826ee527e0ea61ed29795c8cebf6&oe=554D12C0&__gda__=1431911158_eb8e605895d19926a5ff9bdc3cd75b38
p742
sg4
V417333_10150680641383338_1819662107_n.jpg?oh=9c4c826ee527e0ea61ed29795c8cebf6&oe=554D12C0&__gda__=1431911158_eb8e605895d19926a5ff9bdc3cd75b38
p743
sa(dp744
g2
Vhttps://scontent-a.xx.fbcdn.net/hphotos-xaf1/v/t1.0-9/s720x720/417995_10150680640963338_1727861548_n.jpg?oh=1a07ed97e5a63aee5438cbacc6fd9444&oe=55610EB2
p745
sg4
V417995_10150680640963338_1727861548_n.jpg?oh=1a07ed97e5a63aee5438cbacc6fd9444&oe=55610EB2
p746
sa(dp747
g2
Vhttps://fbcdn-sphotos-a-a.akamaihd.net/hphotos-ak-xaf1/v/t1.0-9/s720x720/430782_10150680640423338_569699194_n.jpg?oh=61a7edea895bb9eb7a6fbd037c82db20&oe=5567AF16&__gda__=1432624744_ee6b507d3179dec3acd9ca971361a46b
p748
sg4
V430782_10150680640423338_569699194_n.jpg?oh=61a7edea895bb9eb7a6fbd037c82db20&oe=5567AF16&__gda__=1432624744_ee6b507d3179dec3acd9ca971361a46b
p749
sa(dp750
g2
Vhttps://fbcdn-sphotos-c-a.akamaihd.net/hphotos-ak-xaf1/v/t1.0-9/s720x720/423063_10150680640008338_756570019_n.jpg?oh=303e38a86c808d7502fd1a699c991318&oe=5552E76D&__gda__=1431622419_b0bcb95229b808e662f7a3633c9e50de
p751
sg4
V423063_10150680640008338_756570019_n.jpg?oh=303e38a86c808d7502fd1a699c991318&oe=5552E76D&__gda__=1431622419_b0bcb95229b808e662f7a3633c9e50de
p752
sa(dp753
g2
Vhttps://scontent-a.xx.fbcdn.net/hphotos-xaf1/v/t1.0-9/s720x720/430344_10150680639553338_566246493_n.jpg?oh=8d211d37ccea61d535a4e42b0de824dc&oe=5550397F
p754
sg4
V430344_10150680639553338_566246493_n.jpg?oh=8d211d37ccea61d535a4e42b0de824dc&oe=5550397F
p755
sa(dp756
g2
Vhttps://scontent-b.xx.fbcdn.net/hphotos-xfa1/v/t1.0-9/s720x720/418564_10150680639203338_1863903699_n.jpg?oh=5ea362a845eff16b7c462fd63a76b6d8&oe=55578AC5
p757
sg4
V418564_10150680639203338_1863903699_n.jpg?oh=5ea362a845eff16b7c462fd63a76b6d8&oe=55578AC5
p758
sa(dp759
g2
Vhttps://fbcdn-sphotos-f-a.akamaihd.net/hphotos-ak-xfa1/v/t1.0-9/s720x720/426249_10150680638713338_734658015_n.jpg?oh=1c46e52c662066e339fcde9a3d796910&oe=554BDFBF&__gda__=1432605935_733bed718c3daeade0396cb91284f3db
p760
sg4
V426249_10150680638713338_734658015_n.jpg?oh=1c46e52c662066e339fcde9a3d796910&oe=554BDFBF&__gda__=1432605935_733bed718c3daeade0396cb91284f3db
p761
sa(dp762
g2
Vhttps://scontent-b.xx.fbcdn.net/hphotos-xfa1/v/t1.0-9/s720x720/423213_10150680638353338_1062069299_n.jpg?oh=2572a28ca422708c5eeb6dd1d39c6d67&oe=554E4E81
p763
sg4
V423213_10150680638353338_1062069299_n.jpg?oh=2572a28ca422708c5eeb6dd1d39c6d67&oe=554E4E81
p764
sa(dp765
g2
Vhttps://scontent-b.xx.fbcdn.net/hphotos-xfa1/v/t1.0-9/s720x720/429992_10150680638208338_1379387474_n.jpg?oh=f4343ce938a5cc3729bc9e2ecc777e1b&oe=55642652
p766
sg4
V429992_10150680638208338_1379387474_n.jpg?oh=f4343ce938a5cc3729bc9e2ecc777e1b&oe=55642652
p767
sa(dp768
g2
Vhttps://fbcdn-sphotos-a-a.akamaihd.net/hphotos-ak-xaf1/v/t1.0-9/s720x720/425703_10150680637798338_1978444760_n.jpg?oh=375818f0ebfa65ac2ce6bfd3af7e7f61&oe=55642F4E&__gda__=1432003583_9078ca0cd46c0f3129d47138f3533ef4
p769
sg4
V425703_10150680637798338_1978444760_n.jpg?oh=375818f0ebfa65ac2ce6bfd3af7e7f61&oe=55642F4E&__gda__=1432003583_9078ca0cd46c0f3129d47138f3533ef4
p770
sa(dp771
g2
Vhttps://fbcdn-sphotos-g-a.akamaihd.net/hphotos-ak-xaf1/v/t1.0-9/s720x720/401013_10150680637038338_1587779556_n.jpg?oh=d948f5c84df92288de64d9e575ed6933&oe=5551C040&__gda__=1431061233_8a8331beda54578a515ffc366f5f0bdf
p772
sg4
V401013_10150680637038338_1587779556_n.jpg?oh=d948f5c84df92288de64d9e575ed6933&oe=5551C040&__gda__=1431061233_8a8331beda54578a515ffc366f5f0bdf
p773
sa(dp774
g2
Vhttps://scontent-a.xx.fbcdn.net/hphotos-xaf1/v/t1.0-9/s720x720/431022_10150680636188338_1429974964_n.jpg?oh=4bde82217447106216aa77a03af31e97&oe=5561853D
p775
sg4
V431022_10150680636188338_1429974964_n.jpg?oh=4bde82217447106216aa77a03af31e97&oe=5561853D
p776
sa(dp777
g2
Vhttps://fbcdn-sphotos-b-a.akamaihd.net/hphotos-ak-xfa1/v/t1.0-9/s720x720/404834_10150680635638338_707173627_n.jpg?oh=b189902475b4442862d6045f7a5b410e&oe=554E6727&__gda__=1430833271_76293babc42c90d1e2af9f83412a5d7f
p778
sg4
V404834_10150680635638338_707173627_n.jpg?oh=b189902475b4442862d6045f7a5b410e&oe=554E6727&__gda__=1430833271_76293babc42c90d1e2af9f83412a5d7f
p779
sa(dp780
g2
Vhttps://scontent-b.xx.fbcdn.net/hphotos-xfa1/v/t1.0-9/s720x720/418234_10150680635358338_1766969968_n.jpg?oh=6db5b061aa182109e9819d0780cfa72e&oe=556802E4
p781
sg4
V418234_10150680635358338_1766969968_n.jpg?oh=6db5b061aa182109e9819d0780cfa72e&oe=556802E4
p782
sa(dp783
g2
Vhttps://fbcdn-sphotos-f-a.akamaihd.net/hphotos-ak-xfa1/v/t1.0-9/s720x720/405872_10150680635198338_393480973_n.jpg?oh=58d5ab86c790424edc11b750c1ddff2a&oe=554905AC&__gda__=1432232700_a709415a1181bc5a9b8ebacb447ab53a
p784
sg4
V405872_10150680635198338_393480973_n.jpg?oh=58d5ab86c790424edc11b750c1ddff2a&oe=554905AC&__gda__=1432232700_a709415a1181bc5a9b8ebacb447ab53a
p785
sa(dp786
g2
Vhttps://fbcdn-sphotos-f-a.akamaihd.net/hphotos-ak-xfa1/t31.0-8/p480x480/415944_10150661817213338_560844884_o.jpg
p787
sg4
VCourtesy - Brian.jpg
p788
sa(dp789
g2
Vhttps://scontent-b.xx.fbcdn.net/hphotos-xfa1/v/t1.0-9/s720x720/421442_10150643173478338_2058896592_n.jpg?oh=b08a2aae92acbcc11482139c4a793ddf&oe=5563E00E
p790
sg4
V421442_10150643173478338_2058896592_n.jpg?oh=b08a2aae92acbcc11482139c4a793ddf&oe=5563E00E
p791
sa(dp792
g2
Vhttps://fbcdn-sphotos-a-a.akamaihd.net/hphotos-ak-xaf1/v/t1.0-9/p480x480/417873_10150630245083338_1283216564_n.jpg?oh=89e2a6408b782f372869ffa4383e4f87&oe=554CB222&__gda__=1432404883_53161b37e65cfa24447edf0e6e49dc70
p793
sg4
V417873_10150630245083338_1283216564_n.jpg?oh=89e2a6408b782f372869ffa4383e4f87&oe=554CB222&__gda__=1432404883_53161b37e65cfa24447edf0e6e49dc70
p794
sa(dp795
g2
Vhttps://fbcdn-sphotos-e-a.akamaihd.net/hphotos-ak-xaf1/v/t1.0-9/395199_10150550092548338_403380680_n.jpg?oh=c07c0ac94c117b33b3e1897aaa3f3a1c&oe=55961FB2&__gda__=1431118177_2492e3c8e092f56e348aa4a5d746c827
p796
sg4
V395199_10150550092548338_403380680_n.jpg?oh=c07c0ac94c117b33b3e1897aaa3f3a1c&oe=55961FB2&__gda__=1431118177_2492e3c8e092f56e348aa4a5d746c827
p797
sa(dp798
g2
Vhttps://fbcdn-sphotos-b-a.akamaihd.net/hphotos-ak-xfa1/v/t1.0-9/s720x720/393230_10150504886373338_434037403_n.jpg?oh=e4269f4d610320163e77b018a8ae9175&oe=5564EE04&__gda__=1432659028_9b33634d2a5d881401ffa4ed2a353590
p799
sg4
V393230_10150504886373338_434037403_n.jpg?oh=e4269f4d610320163e77b018a8ae9175&oe=5564EE04&__gda__=1432659028_9b33634d2a5d881401ffa4ed2a353590
p800
sa(dp801
g2
Vhttps://fbcdn-sphotos-f-a.akamaihd.net/hphotos-ak-xfa1/v/t1.0-9/s720x720/383786_10150504886148338_1248564735_n.jpg?oh=1625f808ee9e5aefb3e0ba1f502dac60&oe=559590EC&__gda__=1433047002_a93ec6cd29a074ed48ac7f0c7202f9ff
p802
sg4
V383786_10150504886148338_1248564735_n.jpg?oh=1625f808ee9e5aefb3e0ba1f502dac60&oe=559590EC&__gda__=1433047002_a93ec6cd29a074ed48ac7f0c7202f9ff
p803
sa(dp804
g2
Vhttps://fbcdn-sphotos-g-a.akamaihd.net/hphotos-ak-xaf1/v/t1.0-9/s720x720/393632_10150504885923338_5864879_n.jpg?oh=cb70c32efda9cf75f5e781120e4f0c84&oe=555A6E6B&__gda__=1435925044_26fa0a824738e0216cc742bfab3d1669
p805
sg4
V393632_10150504885923338_5864879_n.jpg?oh=cb70c32efda9cf75f5e781120e4f0c84&oe=555A6E6B&__gda__=1435925044_26fa0a824738e0216cc742bfab3d1669
p806
sa(dp807
g2
Vhttps://fbcdn-sphotos-h-a.akamaihd.net/hphotos-ak-xfa1/v/t1.0-9/s720x720/390619_10150504885663338_1625589322_n.jpg?oh=f35a93b8c611accdc67854c7a56329bd&oe=5563B606&__gda__=1431878192_c69a2908f011f90879381e960e686efb
p808
sg4
V4 Brahmins chanting slokas for Shivji6efb
p809
sa(dp810
g2
Vhttps://fbcdn-sphotos-d-a.akamaihd.net/hphotos-ak-xfa1/v/t1.0-9/s720x720/384432_10150504885453338_1032244956_n.jpg?oh=9e1a9f0ad470eb2c0342f1aea8d625c4&oe=5554CC97&__gda__=1432636577_75f428fa17bc08d0b63746bbaabb3771
p811
sg4
V384432_10150504885453338_1032244956_n.jpg?oh=9e1a9f0ad470eb2c0342f1aea8d625c4&oe=5554CC97&__gda__=1432636577_75f428fa17bc08d0b63746bbaabb3771
p812
sa(dp813
g2
Vhttps://scontent-a.xx.fbcdn.net/hphotos-xaf1/v/t1.0-9/s720x720/382715_10150504885313338_1291928497_n.jpg?oh=99b1503b10e3605194650cd6b0e2838b&oe=556A3154
p814
sg4
V382715_10150504885313338_1291928497_n.jpg?oh=99b1503b10e3605194650cd6b0e2838b&oe=556A3154
p815
sa(dp816
g2
Vhttps://scontent-a.xx.fbcdn.net/hphotos-xaf1/v/t1.0-9/s720x720/386729_10150504885193338_2078704610_n.jpg?oh=9bc7944e1a31f7a0008e916e194b279d&oe=555B4C66
p817
sg4
VMy parents )4C66
p818
sa(dp819
g2
Vhttps://scontent-b.xx.fbcdn.net/hphotos-xfa1/v/t1.0-9/s720x720/376478_10150504885018338_242905665_n.jpg?oh=45e4689f3814374f92af95d35a592c50&oe=555F0279
p820
sg4
VShivjis idol hidden beneath the offerings0279
p821
sa(dp822
g2
Vhttps://scontent-b.xx.fbcdn.net/hphotos-xpf1/v/t1.0-9/s720x720/381089_10150504884813338_81047920_n.jpg?oh=9232236c19c4c09e5b35a81e5b097be8&oe=55638D98
p823
sg4
V381089_10150504884813338_81047920_n.jpg?oh=9232236c19c4c09e5b35a81e5b097be8&oe=55638D98
p824
sa(dp825
g2
Vhttps://fbcdn-sphotos-g-a.akamaihd.net/hphotos-ak-xfp1/v/t1.0-9/s720x720/390496_10150504884578338_1882840261_n.jpg?oh=8088412d11ac66c8bdf1c0d785f24da1&oe=555A8984&__gda__=1431832333_b0f63e9317af62c005cac65055a6a61c
p826
sg4
V390496_10150504884578338_1882840261_n.jpg?oh=8088412d11ac66c8bdf1c0d785f24da1&oe=555A8984&__gda__=1431832333_b0f63e9317af62c005cac65055a6a61c
p827
sa(dp828
g2
Vhttps://scontent-b.xx.fbcdn.net/hphotos-xfa1/v/t1.0-9/s720x720/375456_10150504884253338_476458720_n.jpg?oh=ab63e2dd6cc1475096e0df5755ecb4ad&oe=5566CA29
p829
sg4
VA congregation of 26 Brahmins (Hindu priests) reciting the VedasCA29
p830
sa(dp831
g2
Vhttps://scontent-b.xx.fbcdn.net/hphotos-xfa1/v/t1.0-9/s720x720/388179_10150504882013338_475845537_n.jpg?oh=82c48957f27767b3fe6450a8e76b997c&oe=55596A1E
p832
sg4
V388179_10150504882013338_475845537_n.jpg?oh=82c48957f27767b3fe6450a8e76b997c&oe=55596A1E
p833
sa(dp834
g2
Vhttps://fbcdn-sphotos-c-a.akamaihd.net/hphotos-ak-xaf1/v/t1.0-9/s720x720/388591_10150504880508338_1265302470_n.jpg?oh=0c0d452acb5cb4fe060bdad5d25bc15f&oe=55605B03&__gda__=1430914226_bd81cee4aedf46f97c67ff739cb0ac63
p835
sg4
VWelding in a factoryac63
p836
sa(dp837
g2
Vhttps://fbcdn-sphotos-f-a.akamaihd.net/hphotos-ak-xfa1/v/t1.0-9/s720x720/382976_10150504879083338_883324348_n.jpg?oh=4e6ec0975dd5caef39354ee23193e9d2&oe=554FD331&__gda__=1432134241_d30011de7f77ec5399f3836311395eac
p838
sg4
V382976_10150504879083338_883324348_n.jpg?oh=4e6ec0975dd5caef39354ee23193e9d2&oe=554FD331&__gda__=1432134241_d30011de7f77ec5399f3836311395eac
p839
sa(dp840
g2
Vhttps://fbcdn-sphotos-h-a.akamaihd.net/hphotos-ak-xpf1/v/t1.0-9/s720x720/387840_10150504877858338_603028722_n.jpg?oh=8693d1725cab69918f43614dfcdf83d2&oe=55692A85&__gda__=1432102468_d25661c2e76793d8b9e5d00a3ba935be
p841
sg4
V387840_10150504877858338_603028722_n.jpg?oh=8693d1725cab69918f43614dfcdf83d2&oe=55692A85&__gda__=1432102468_d25661c2e76793d8b9e5d00a3ba935be
p842
sa(dp843
g2
Vhttps://scontent-b.xx.fbcdn.net/hphotos-xfa1/v/t1.0-9/s720x720/390603_10150504877473338_833320898_n.jpg?oh=49d1f049aad5f72e4035f2d1ac7c4036&oe=5555B056
p844
sg4
V390603_10150504877473338_833320898_n.jpg?oh=49d1f049aad5f72e4035f2d1ac7c4036&oe=5555B056
p845
sa(dp846
g2
Vhttps://fbcdn-sphotos-e-a.akamaihd.net/hphotos-ak-xaf1/v/t1.0-9/s720x720/383145_10150504877173338_1555875888_n.jpg?oh=082976e263e60952fc9b6ee492a1d61e&oe=555107B5&__gda__=1430830596_7e46c6ee42ce6a965cf8cf4425560286
p847
sg4
V383145_10150504877173338_1555875888_n.jpg?oh=082976e263e60952fc9b6ee492a1d61e&oe=555107B5&__gda__=1430830596_7e46c6ee42ce6a965cf8cf4425560286
p848
sa(dp849
g2
Vhttps://scontent-a.xx.fbcdn.net/hphotos-xfp1/v/t1.0-9/s720x720/388882_10150504876583338_939788628_n.jpg?oh=1059ebe360cc78303de0b3ca9cf79561&oe=55524A0E
p850
sg4
V388882_10150504876583338_939788628_n.jpg?oh=1059ebe360cc78303de0b3ca9cf79561&oe=55524A0E
p851
sa(dp852
g2
Vhttps://fbcdn-sphotos-a-a.akamaihd.net/hphotos-ak-xaf1/v/t1.0-9/s720x720/380898_10150504876403338_816764395_n.jpg?oh=02491f38a28410d3e97b30b1113e1fed&oe=5593144E&__gda__=1432935728_25e2ce80d8859255b99fc0615fb83091
p853
sg4
V380898_10150504876403338_816764395_n.jpg?oh=02491f38a28410d3e97b30b1113e1fed&oe=5593144E&__gda__=1432935728_25e2ce80d8859255b99fc0615fb83091
p854
sa(dp855
g2
Vhttps://fbcdn-sphotos-e-a.akamaihd.net/hphotos-ak-xaf1/v/t1.0-9/s720x720/391902_10150504876078338_495900791_n.jpg?oh=6d542f065d51d89f81561134a1daf5fc&oe=5560B771&__gda__=1432589071_8d64c3b503a1aa4e8e6e82aa0a94428e
p856
sg4
V391902_10150504876078338_495900791_n.jpg?oh=6d542f065d51d89f81561134a1daf5fc&oe=5560B771&__gda__=1432589071_8d64c3b503a1aa4e8e6e82aa0a94428e
p857
sa(dp858
g2
Vhttps://fbcdn-sphotos-d-a.akamaihd.net/hphotos-ak-xfa1/v/t1.0-9/s720x720/382880_10150504875913338_228676332_n.jpg?oh=1a281c1d87fff29bf5841c4e41067b63&oe=5555E991&__gda__=1431190721_ebf2474b7381fe8e382034f8e22c49ec
p859
sg4
V382880_10150504875913338_228676332_n.jpg?oh=1a281c1d87fff29bf5841c4e41067b63&oe=5555E991&__gda__=1431190721_ebf2474b7381fe8e382034f8e22c49ec
p860
sa(dp861
g2
Vhttps://scontent-a.xx.fbcdn.net/hphotos-xaf1/v/l/t1.0-9/s720x720/390937_10150504875493338_1459765174_n.jpg?oh=2caf474f35be56ff9c5d332dbbd02d1c&oe=55617B82
p862
sg4
V390937_10150504875493338_1459765174_n.jpg?oh=2caf474f35be56ff9c5d332dbbd02d1c&oe=55617B82
p863
sa(dp864
g2
Vhttps://scontent-b.xx.fbcdn.net/hphotos-xfa1/v/t1.0-9/s720x720/384174_10150504875168338_1455014295_n.jpg?oh=f0453d116e3a2dd9b8d8e8afb05491cb&oe=555B5EAF
p865
sg4
V384174_10150504875168338_1455014295_n.jpg?oh=f0453d116e3a2dd9b8d8e8afb05491cb&oe=555B5EAF
p866
sa(dp867
g2
Vhttps://fbcdn-sphotos-a-a.akamaihd.net/hphotos-ak-xaf1/v/t1.0-9/s720x720/383681_10150504874888338_962766324_n.jpg?oh=bd802c05a4e39a70bbbd4a54bcef9d14&oe=555F6149&__gda__=1431808311_0530c61bc884f68b2794a5ef0a1fc75c
p868
sg4
V383681_10150504874888338_962766324_n.jpg?oh=bd802c05a4e39a70bbbd4a54bcef9d14&oe=555F6149&__gda__=1431808311_0530c61bc884f68b2794a5ef0a1fc75c
p869
sa(dp870
g2
Vhttps://scontent-a.xx.fbcdn.net/hphotos-xaf1/v/t1.0-9/s720x720/378023_10150504874648338_438501392_n.jpg?oh=a7c0a203d5c0ab44a48811e3ff656368&oe=555D4ABA
p871
sg4
V378023_10150504874648338_438501392_n.jpg?oh=a7c0a203d5c0ab44a48811e3ff656368&oe=555D4ABA
p872
sa(dp873
g2
Vhttps://scontent-b.xx.fbcdn.net/hphotos-xfa1/v/t1.0-9/s720x720/383098_10150504874228338_1770461930_n.jpg?oh=70454e514f394e8b2ee536a4a7684566&oe=55611F83
p874
sg4
V383098_10150504874228338_1770461930_n.jpg?oh=70454e514f394e8b2ee536a4a7684566&oe=55611F83
p875
sa(dp876
g2
Vhttps://scontent-a.xx.fbcdn.net/hphotos-xaf1/v/t1.0-9/s720x720/393462_10150504873728338_1865027019_n.jpg?oh=dd321d7de4f32aab8a99a1edcc076d63&oe=55698DEC
p877
sg4
V393462_10150504873728338_1865027019_n.jpg?oh=dd321d7de4f32aab8a99a1edcc076d63&oe=55698DEC
p878
sa(dp879
g2
Vhttps://scontent-b.xx.fbcdn.net/hphotos-xfa1/v/t1.0-9/s720x720/388264_10150504873398338_1813665583_n.jpg?oh=0f511f924372037366fb1d195ab8972f&oe=5595FA52
p880
sg4
V388264_10150504873398338_1813665583_n.jpg?oh=0f511f924372037366fb1d195ab8972f&oe=5595FA52
p881
sa(dp882
g2
Vhttps://scontent-b.xx.fbcdn.net/hphotos-xfa1/v/t1.0-9/s720x720/388182_10150504873168338_2014272666_n.jpg?oh=8fa7addc1dd9a5d199fd4fa713f18164&oe=554C7465
p883
sg4
V388182_10150504873168338_2014272666_n.jpg?oh=8fa7addc1dd9a5d199fd4fa713f18164&oe=554C7465
p884
sa(dp885
g2
Vhttps://fbcdn-sphotos-a-a.akamaihd.net/hphotos-ak-xaf1/v/t1.0-9/s720x720/391935_10150504872703338_1991812140_n.jpg?oh=8305bf6e4ee67f0814cc243d17495bac&oe=5555F2BD&__gda__=1430820620_06c4855e81f3c3716ed4fcf7927093d1
p886
sg4
V391935_10150504872703338_1991812140_n.jpg?oh=8305bf6e4ee67f0814cc243d17495bac&oe=5555F2BD&__gda__=1430820620_06c4855e81f3c3716ed4fcf7927093d1
p887
sa(dp888
g2
Vhttps://scontent-a.xx.fbcdn.net/hphotos-xaf1/v/t1.0-9/s720x720/390447_10150504872378338_1981215983_n.jpg?oh=6790de5c0dab30f54dedae19d45752eb&oe=5565A07D
p889
sg4
V390447_10150504872378338_1981215983_n.jpg?oh=6790de5c0dab30f54dedae19d45752eb&oe=5565A07D
p890
sa(dp891
g2
Vhttps://scontent-a.xx.fbcdn.net/hphotos-xfp1/t31.0-8/s720x720/330347_10150503551608338_2131553097_o.jpg
p892
sg4
V330347_10150503551608338_2131553097_o.jpg
p893
sa(dp894
g2
Vhttps://fbcdn-sphotos-d-a.akamaihd.net/hphotos-ak-xfa1/v/t1.0-9/313436_10150436357598338_508337433_n.jpg?oh=3ea83d65ac702120a2a8cbba533d085e&oe=5548375A&__gda__=1430803309_c0b0f08a3e9d06d29c39c939491e5a16
p895
sg4
V313436_10150436357598338_508337433_n.jpg?oh=3ea83d65ac702120a2a8cbba533d085e&oe=5548375A&__gda__=1430803309_c0b0f08a3e9d06d29c39c939491e5a16
p896
sa(dp897
g2
Vhttps://scontent-b.xx.fbcdn.net/hphotos-xpf1/v/t1.0-9/283287_10150335182913338_1050260_n.jpg?oh=9b9195ce5f74f1bf8ae0a6f08a6ed277&oe=555A8609
p898
sg4
V283287_10150335182913338_1050260_n.jpg?oh=9b9195ce5f74f1bf8ae0a6f08a6ed277&oe=555A8609
p899
sa(dp900
g2
Vhttps://fbcdn-sphotos-c-a.akamaihd.net/hphotos-ak-xaf1/v/t1.0-9/270661_10150301342218338_4133184_n.jpg?oh=90f5548cc126e0eb1491729a9771a2c2&oe=556037B0&__gda__=1430826081_a17de563a2be9b73fd949c9c0812fb77
p901
sg4
V270661_10150301342218338_4133184_n.jpg?oh=90f5548cc126e0eb1491729a9771a2c2&oe=556037B0&__gda__=1430826081_a17de563a2be9b73fd949c9c0812fb77
p902
sa(dp903
g2
Vhttps://scontent-b.xx.fbcdn.net/hphotos-xfa1/v/t1.0-9/225504_10150246569023338_5480683_n.jpg?oh=58052b301ab966d89973c2d1f5c18139&oe=555B282A
p904
sg4
VHwa Chong International you shall never be forgotten282A
p905
sa(dp906
g2
Vhttps://fbcdn-sphotos-a-a.akamaihd.net/hphotos-ak-xaf1/v/t1.0-9/222274_10150246543938338_6259835_n.jpg?oh=00807209f33a35447a969bfcb5946356&oe=5565F72E&__gda__=1431395327_24940f1a676984b681c27dcf32f70fbc
p907
sg4
V222274_10150246543938338_6259835_n.jpg?oh=00807209f33a35447a969bfcb5946356&oe=5565F72E&__gda__=1431395327_24940f1a676984b681c27dcf32f70fbc
p908
sa(dp909
g2
Vhttps://fbcdn-sphotos-f-a.akamaihd.net/hphotos-ak-xfa1/v/t1.0-9/227226_10150230641133338_3453502_n.jpg?oh=000c802abbe6ae9cc91af029595161c4&oe=5553FB40&__gda__=1431238654_4db45564aaa132c5544d74fa06047778
p910
sg4
V227226_10150230641133338_3453502_n.jpg?oh=000c802abbe6ae9cc91af029595161c4&oe=5553FB40&__gda__=1431238654_4db45564aaa132c5544d74fa06047778
p911
sa(dp912
g2
Vhttps://fbcdn-sphotos-a-a.akamaihd.net/hphotos-ak-xaf1/v/t1.0-9/208484_10150207388008338_6849616_n.jpg?oh=a0705d2bec8f15b5401043358f859e39&oe=5551DBA9&__gda__=1432379512_4dacfe6049c24e4527d6e04365be4ffe
p913
sg4
V208484_10150207388008338_6849616_n.jpg?oh=a0705d2bec8f15b5401043358f859e39&oe=5551DBA9&__gda__=1432379512_4dacfe6049c24e4527d6e04365be4ffe
p914
sa(dp915
g2
Vhttps://scontent-a.xx.fbcdn.net/hphotos-xaf1/v/t1.0-9/205482_10150207387878338_5935738_n.jpg?oh=1e271460964836b6f07c61946c850a48&oe=5566FAB7
p916
sg4
V205482_10150207387878338_5935738_n.jpg?oh=1e271460964836b6f07c61946c850a48&oe=5566FAB7
p917
sa(dp918
g2
Vhttps://fbcdn-sphotos-e-a.akamaihd.net/hphotos-ak-xaf1/v/t1.0-9/215617_10150207387833338_1493544_n.jpg?oh=3a307f8a4e3b437f23642161b289cd88&oe=5552F35D&__gda__=1431474572_7f49d6e5d1ab904b538c7fb99b2fc777
p919
sg4
V215617_10150207387833338_1493544_n.jpg?oh=3a307f8a4e3b437f23642161b289cd88&oe=5552F35D&__gda__=1431474572_7f49d6e5d1ab904b538c7fb99b2fc777
p920
sa(dp921
g2
Vhttps://fbcdn-sphotos-h-a.akamaihd.net/hphotos-ak-xfa1/v/t1.0-9/216262_10150207387668338_1137614_n.jpg?oh=b327cb9a50fe0624132de74d2450151b&oe=554F4140&__gda__=1431511038_6b52c21dcb49f38e9034b6318a14ad97
p922
sg4
V216262_10150207387668338_1137614_n.jpg?oh=b327cb9a50fe0624132de74d2450151b&oe=554F4140&__gda__=1431511038_6b52c21dcb49f38e9034b6318a14ad97
p923
sa(dp924
g2
Vhttps://scontent-b.xx.fbcdn.net/hphotos-xfa1/v/t1.0-9/215120_10150207387513338_7203180_n.jpg?oh=c61cbbfca636aba9f9054abe5cb0f34e&oe=556A29D1
p925
sg4
V215120_10150207387513338_7203180_n.jpg?oh=c61cbbfca636aba9f9054abe5cb0f34e&oe=556A29D1
p926
sa(dp927
g2
Vhttps://fbcdn-sphotos-c-a.akamaihd.net/hphotos-ak-xaf1/v/t1.0-9/207360_10150207387073338_7899350_n.jpg?oh=8ada1e89b6ed5639f2ca1e8699c74b83&oe=555A64DA&__gda__=1432373003_6e5fbee5bbfbaa14fb33f97b4f747e50
p928
sg4
V207360_10150207387073338_7899350_n.jpg?oh=8ada1e89b6ed5639f2ca1e8699c74b83&oe=555A64DA&__gda__=1432373003_6e5fbee5bbfbaa14fb33f97b4f747e50
p929
sa(dp930
g2
Vhttps://scontent-a.xx.fbcdn.net/hphotos-xfp1/v/t1.0-9/215969_10150207386578338_7603095_n.jpg?oh=adae8d8b1257c0d1b635cbe9aa2818ee&oe=555DB4C0
p931
sg4
V215969_10150207386578338_7603095_n.jpg?oh=adae8d8b1257c0d1b635cbe9aa2818ee&oe=555DB4C0
p932
sa(dp933
g2
Vhttps://scontent-a.xx.fbcdn.net/hphotos-xaf1/v/t1.0-9/215135_10150207386258338_2397905_n.jpg?oh=030343ed5a9ea1e0c84b662f2efaf044&oe=555DEAD0
p934
sg4
V215135_10150207386258338_2397905_n.jpg?oh=030343ed5a9ea1e0c84b662f2efaf044&oe=555DEAD0
p935
sa(dp936
g2
Vhttps://fbcdn-sphotos-d-a.akamaihd.net/hphotos-ak-xfa1/v/t1.0-9/217219_10150207385823338_3259638_n.jpg?oh=eb7ba188adb84f19209d514a2292d340&oe=5564EE4F&__gda__=1433031153_68ce6723c5fd4959905e2e89c109564a
p937
sg4
V217219_10150207385823338_3259638_n.jpg?oh=eb7ba188adb84f19209d514a2292d340&oe=5564EE4F&__gda__=1433031153_68ce6723c5fd4959905e2e89c109564a
p938
sa(dp939
g2
Vhttps://scontent-a.xx.fbcdn.net/hphotos-xaf1/v/t1.0-9/207315_10150207385498338_2929247_n.jpg?oh=ff777fe9069a9c30d1bd6545750658ad&oe=555FC2D0
p940
sg4
V207315_10150207385498338_2929247_n.jpg?oh=ff777fe9069a9c30d1bd6545750658ad&oe=555FC2D0
p941
sa(dp942
g2
Vhttps://fbcdn-sphotos-g-a.akamaihd.net/hphotos-ak-xaf1/v/t1.0-9/206639_10150207385303338_5721685_n.jpg?oh=05e5404e8615fbded3f5e7686a236fd9&oe=556585AE&__gda__=1431979903_90b081b2b54b62d6b33509a86b5f2514
p943
sg4
V206639_10150207385303338_5721685_n.jpg?oh=05e5404e8615fbded3f5e7686a236fd9&oe=556585AE&__gda__=1431979903_90b081b2b54b62d6b33509a86b5f2514
p944
sa(dp945
g2
Vhttps://fbcdn-sphotos-f-a.akamaihd.net/hphotos-ak-xfa1/v/t1.0-9/215149_10150207385098338_613971_n.jpg?oh=dd313f227bb9f84472bcb6f9bc6373e9&oe=55649493&__gda__=1432160602_191947bd1ffdc0dff2c4d88cc534f977
p946
sg4
V215149_10150207385098338_613971_n.jpg?oh=dd313f227bb9f84472bcb6f9bc6373e9&oe=55649493&__gda__=1432160602_191947bd1ffdc0dff2c4d88cc534f977
p947
sa(dp948
g2
Vhttps://fbcdn-sphotos-d-a.akamaihd.net/hphotos-ak-xfa1/v/t1.0-9/205678_10150207384943338_3772637_n.jpg?oh=badfc199b4c7aa23fa2ff10cb3f4a4de&oe=556572DA&__gda__=1431233380_a19049f5bc9b443f980f28f23fb6b8d2
p949
sg4
V205678_10150207384943338_3772637_n.jpg?oh=badfc199b4c7aa23fa2ff10cb3f4a4de&oe=556572DA&__gda__=1431233380_a19049f5bc9b443f980f28f23fb6b8d2
p950
sa(dp951
g2
Vhttps://scontent-b.xx.fbcdn.net/hphotos-xfa1/v/t1.0-9/208345_10150207384768338_3956379_n.jpg?oh=185a58c57b890be7b421135ceaf7784f&oe=555F0595
p952
sg4
V208345_10150207384768338_3956379_n.jpg?oh=185a58c57b890be7b421135ceaf7784f&oe=555F0595
p953
sa(dp954
g2
Vhttps://fbcdn-sphotos-h-a.akamaihd.net/hphotos-ak-xfa1/v/t1.0-9/215785_10150207384448338_6628359_n.jpg?oh=194f80ae13f95ec4d5c973bcd2db206a&oe=5593F739&__gda__=1432531847_bf0c8599ff3981f8a8f9294c836eb387
p955
sg4
V215785_10150207384448338_6628359_n.jpg?oh=194f80ae13f95ec4d5c973bcd2db206a&oe=5593F739&__gda__=1432531847_bf0c8599ff3981f8a8f9294c836eb387
p956
sa(dp957
g2
Vhttps://fbcdn-sphotos-c-a.akamaihd.net/hphotos-ak-xaf1/v/t1.0-9/207170_10150207384308338_5989566_n.jpg?oh=56f99d73f4e2aa91f694a15ba9a133b6&oe=555B3B86&__gda__=1431055191_b4b740207b17f652ac9dcd081c2fc94e
p958
sg4
V207170_10150207384308338_5989566_n.jpg?oh=56f99d73f4e2aa91f694a15ba9a133b6&oe=555B3B86&__gda__=1431055191_b4b740207b17f652ac9dcd081c2fc94e
p959
sa(dp960
g2
Vhttps://scontent-a.xx.fbcdn.net/hphotos-xaf1/v/t1.0-9/217434_10150207384128338_4657695_n.jpg?oh=5c729a2e97cd2b05665fbdef88730592&oe=554A6C2E
p961
sg4
V217434_10150207384128338_4657695_n.jpg?oh=5c729a2e97cd2b05665fbdef88730592&oe=554A6C2E
p962
sa(dp963
g2
Vhttps://fbcdn-sphotos-f-a.akamaihd.net/hphotos-ak-xfa1/v/t1.0-9/206846_10150207383958338_1837760_n.jpg?oh=ee0b22bc8d1a322018d07f67f262a129&oe=556939C0&__gda__=1432848510_d43915c2ba28b0630af3c47c04e5eb6a
p964
sg4
V206846_10150207383958338_1837760_n.jpg?oh=ee0b22bc8d1a322018d07f67f262a129&oe=556939C0&__gda__=1432848510_d43915c2ba28b0630af3c47c04e5eb6a
p965
sa(dp966
g2
Vhttps://scontent-b.xx.fbcdn.net/hphotos-xfa1/v/t1.0-9/216559_10150207383773338_1636726_n.jpg?oh=7d69d2a66cba596cc8c55daf0e9562bb&oe=555BB19E
p967
sg4
V216559_10150207383773338_1636726_n.jpg?oh=7d69d2a66cba596cc8c55daf0e9562bb&oe=555BB19E
p968
sa(dp969
g2
Vhttps://scontent-b.xx.fbcdn.net/hphotos-xfa1/v/t1.0-9/215379_10150207383323338_2805465_n.jpg?oh=5b76a84717712847bcda27dba25a5190&oe=554A86EC
p970
sg4
V215379_10150207383323338_2805465_n.jpg?oh=5b76a84717712847bcda27dba25a5190&oe=554A86EC
p971
sa(dp972
g2
Vhttps://fbcdn-sphotos-h-a.akamaihd.net/hphotos-ak-xfa1/v/t1.0-9/218131_10150207383188338_5113060_n.jpg?oh=465ec1a7e1725347d6aff015485d8936&oe=5569E063&__gda__=1431210717_dead9840876fd5332fce19238b59b8ad
p973
sg4
V218131_10150207383188338_5113060_n.jpg?oh=465ec1a7e1725347d6aff015485d8936&oe=5569E063&__gda__=1431210717_dead9840876fd5332fce19238b59b8ad
p974
sa(dp975
g2
Vhttps://fbcdn-sphotos-e-a.akamaihd.net/hphotos-ak-xaf1/v/t1.0-9/216725_10150207382703338_7841485_n.jpg?oh=aa1641bb034752f1cf999d28ad8962e5&oe=55536CA4&__gda__=1432945013_0461ca89603350768f1d48d273559de3
p976
sg4
V216725_10150207382703338_7841485_n.jpg?oh=aa1641bb034752f1cf999d28ad8962e5&oe=55536CA4&__gda__=1432945013_0461ca89603350768f1d48d273559de3
p977
sa(dp978
g2
Vhttps://fbcdn-sphotos-c-a.akamaihd.net/hphotos-ak-xaf1/v/t1.0-9/207098_10150207382508338_3835862_n.jpg?oh=7484544e56ed6e80e7793a8984854859&oe=555592FD&__gda__=1431263788_65de7602b12aafd2f769c76b03aa856c
p979
sg4
V207098_10150207382508338_3835862_n.jpg?oh=7484544e56ed6e80e7793a8984854859&oe=555592FD&__gda__=1431263788_65de7602b12aafd2f769c76b03aa856c
p980
sa(dp981
g2
Vhttps://fbcdn-sphotos-a-a.akamaihd.net/hphotos-ak-xaf1/v/t1.0-9/205090_10150207382313338_39674_n.jpg?oh=f4dd0c26ce876b5ee2f358e4b7667eb7&oe=554C54F5&__gda__=1431271634_b4dcf3e9d1f6acfd14a77974e6997524
p982
sg4
V205090_10150207382313338_39674_n.jpg?oh=f4dd0c26ce876b5ee2f358e4b7667eb7&oe=554C54F5&__gda__=1431271634_b4dcf3e9d1f6acfd14a77974e6997524
p983
sa(dp984
g2
Vhttps://fbcdn-sphotos-g-a.akamaihd.net/hphotos-ak-xaf1/v/t1.0-9/206691_10150207382163338_2329251_n.jpg?oh=da87ff29b70928f05dda70594c230b33&oe=554A2C30&__gda__=1433003489_83a65bac04dd9630eff1f017fc2ca084
p985
sg4
V206691_10150207382163338_2329251_n.jpg?oh=da87ff29b70928f05dda70594c230b33&oe=554A2C30&__gda__=1433003489_83a65bac04dd9630eff1f017fc2ca084
p986
sa(dp987
g2
Vhttps://fbcdn-sphotos-f-a.akamaihd.net/hphotos-ak-xpf1/v/t1.0-9/208122_10150207381673338_2278577_n.jpg?oh=ec3e7b7eb4bb75ca67906e6fe31fcbd2&oe=555C3D52&__gda__=1432914667_d75f6ebdb93ee1ce08e9516f007e1d42
p988
sg4
V208122_10150207381673338_2278577_n.jpg?oh=ec3e7b7eb4bb75ca67906e6fe31fcbd2&oe=555C3D52&__gda__=1432914667_d75f6ebdb93ee1ce08e9516f007e1d42
p989
sa(dp990
g2
Vhttps://scontent-b.xx.fbcdn.net/hphotos-xfa1/v/t1.0-9/208757_10150207380903338_6956200_n.jpg?oh=8d868f55da33cf02fd0887a636a189b0&oe=556191DC
p991
sg4
V208757_10150207380903338_6956200_n.jpg?oh=8d868f55da33cf02fd0887a636a189b0&oe=556191DC
p992
sa(dp993
g2
Vhttps://fbcdn-sphotos-e-a.akamaihd.net/hphotos-ak-xaf1/v/t1.0-9/208215_10150207380723338_862220_n.jpg?oh=768a05a62f3ad0f2b75d27ad1e8aeaa8&oe=554A35FC&__gda__=1430877339_de954fe4070904597ec7b740311957fd
p994
sg4
V208215_10150207380723338_862220_n.jpg?oh=768a05a62f3ad0f2b75d27ad1e8aeaa8&oe=554A35FC&__gda__=1430877339_de954fe4070904597ec7b740311957fd
p995
sa(dp996
g2
Vhttps://fbcdn-sphotos-g-a.akamaihd.net/hphotos-ak-xaf1/v/t1.0-9/217155_10150207380528338_438585_n.jpg?oh=a05f905aa3781913e04bb3abd40b8e81&oe=554ED306&__gda__=1432941921_eb3f9ab80342e8aee717326486eed817
p997
sg4
V217155_10150207380528338_438585_n.jpg?oh=a05f905aa3781913e04bb3abd40b8e81&oe=554ED306&__gda__=1432941921_eb3f9ab80342e8aee717326486eed817
p998
sa(dp999
g2
Vhttps://scontent-b.xx.fbcdn.net/hphotos-xfa1/v/t1.0-9/206808_10150207380398338_7991865_n.jpg?oh=880e01e066619ff37bcf83af93c729d0&oe=555C2F56
p1000
sg4
V206808_10150207380398338_7991865_n.jpg?oh=880e01e066619ff37bcf83af93c729d0&oe=555C2F56
p1001
sa(dp1002
g2
Vhttps://scontent-b.xx.fbcdn.net/hphotos-xfa1/v/t1.0-9/217624_10150207379653338_2265838_n.jpg?oh=06f04a9787401c9d241111eef342f216&oe=55641568
p1003
sg4
V217624_10150207379653338_2265838_n.jpg?oh=06f04a9787401c9d241111eef342f216&oe=55641568
p1004
sa(dp1005
g2
Vhttps://fbcdn-sphotos-b-a.akamaihd.net/hphotos-ak-xfa1/v/t1.0-9/217241_10150207379283338_8122094_n.jpg?oh=c4a21992e934ce7ecadfeb8af3ed9ab7&oe=55671DAE&__gda__=1431413264_3ab9f191faa4d3e0d6be602e566fa993
p1006
sg4
V217241_10150207379283338_8122094_n.jpg?oh=c4a21992e934ce7ecadfeb8af3ed9ab7&oe=55671DAE&__gda__=1431413264_3ab9f191faa4d3e0d6be602e566fa993
p1007
sa(dp1008
g2
Vhttps://scontent-a.xx.fbcdn.net/hphotos-xaf1/v/t1.0-9/208539_10150207379068338_6865775_n.jpg?oh=2a7e727582d4d395c9e12048cf38b998&oe=55619BF7
p1009
sg4
V208539_10150207379068338_6865775_n.jpg?oh=2a7e727582d4d395c9e12048cf38b998&oe=55619BF7
p1010
sa(dp1011
g2
Vhttps://fbcdn-sphotos-d-a.akamaihd.net/hphotos-ak-xfa1/v/t1.0-9/217458_10150207378978338_658234_n.jpg?oh=74526b28f9ac022479399602996ea494&oe=556205D7&__gda__=1431231774_6be86be6c8bd24da2e0067ec4fdd3918
p1012
sg4
V217458_10150207378978338_658234_n.jpg?oh=74526b28f9ac022479399602996ea494&oe=556205D7&__gda__=1431231774_6be86be6c8bd24da2e0067ec4fdd3918
p1013
sa(dp1014
g2
Vhttps://fbcdn-sphotos-f-a.akamaihd.net/hphotos-ak-xfa1/v/t1.0-9/207122_10150207378783338_733070_n.jpg?oh=e7ed75e8063f2c36fe9b49954e964b0e&oe=555F2764&__gda__=1431376557_37277e6253752e3eb871fd42d7baf2a2
p1015
sg4
V207122_10150207378783338_733070_n.jpg?oh=e7ed75e8063f2c36fe9b49954e964b0e&oe=555F2764&__gda__=1431376557_37277e6253752e3eb871fd42d7baf2a2
p1016
sa(dp1017
g2
Vhttps://fbcdn-sphotos-h-a.akamaihd.net/hphotos-ak-xfa1/v/t1.0-9/208280_10150207378643338_1584348_n.jpg?oh=80335a0870459aa201bf19739eaa42dd&oe=5568B5B8&__gda__=1431205894_f56017f861248e44ec1acb755b098196
p1018
sg4
V208280_10150207378643338_1584348_n.jpg?oh=80335a0870459aa201bf19739eaa42dd&oe=5568B5B8&__gda__=1431205894_f56017f861248e44ec1acb755b098196
p1019
sa(dp1020
g2
Vhttps://fbcdn-sphotos-b-a.akamaihd.net/hphotos-ak-xpf1/v/t1.0-9/215560_10150207378543338_7361392_n.jpg?oh=24929a23e6f22a34c9251146380e44fe&oe=555B985F&__gda__=1432423910_a55d9d28df3d2bc34293df53e3a8b6e7
p1021
sg4
V215560_10150207378543338_7361392_n.jpg?oh=24929a23e6f22a34c9251146380e44fe&oe=555B985F&__gda__=1432423910_a55d9d28df3d2bc34293df53e3a8b6e7
p1022
sa(dp1023
g2
Vhttps://scontent-a.xx.fbcdn.net/hphotos-xaf1/v/l/t1.0-9/207919_10150207378378338_5730467_n.jpg?oh=16d1124e2783778e07aa4b2483784245&oe=5558B4F2
p1024
sg4
V207919_10150207378378338_5730467_n.jpg?oh=16d1124e2783778e07aa4b2483784245&oe=5558B4F2
p1025
sa(dp1026
g2
Vhttps://fbcdn-sphotos-e-a.akamaihd.net/hphotos-ak-xaf1/v/t1.0-9/208553_10150207378198338_926380_n.jpg?oh=bdf066cd8ea900c59ee123f7502630f9&oe=555D9E6A&__gda__=1430796557_17c2e89105bd06b8c401ec625e1e9f1b
p1027
sg4
V208553_10150207378198338_926380_n.jpg?oh=bdf066cd8ea900c59ee123f7502630f9&oe=555D9E6A&__gda__=1430796557_17c2e89105bd06b8c401ec625e1e9f1b
p1028
sa(dp1029
g2
Vhttps://scontent-a.xx.fbcdn.net/hphotos-xaf1/v/t1.0-9/217759_10150207378058338_8122570_n.jpg?oh=ac4012a16fbba6e6e4990d2b1ce2805b&oe=554CA006
p1030
sg4
V217759_10150207378058338_8122570_n.jpg?oh=ac4012a16fbba6e6e4990d2b1ce2805b&oe=554CA006
p1031
sa(dp1032
g2
Vhttps://fbcdn-sphotos-h-a.akamaihd.net/hphotos-ak-xfa1/v/t1.0-9/218179_10150207377838338_3573146_n.jpg?oh=afa9925e61769137312105191b3b5c34&oe=55632FA4&__gda__=1432626970_5390398eeacf2c609a07940c2fa4ac1e
p1033
sg4
V218179_10150207377838338_3573146_n.jpg?oh=afa9925e61769137312105191b3b5c34&oe=55632FA4&__gda__=1432626970_5390398eeacf2c609a07940c2fa4ac1e
p1034
sa(dp1035
g2
Vhttps://fbcdn-sphotos-a-a.akamaihd.net/hphotos-ak-xaf1/v/t1.0-9/207299_10150207377718338_6932431_n.jpg?oh=4c2c634bed34803e51f2b61a629e44fe&oe=554C7E86&__gda__=1432457815_c1ae8a935711b2d1f604a06aca8b1367
p1036
sg4
V207299_10150207377718338_6932431_n.jpg?oh=4c2c634bed34803e51f2b61a629e44fe&oe=554C7E86&__gda__=1432457815_c1ae8a935711b2d1f604a06aca8b1367
p1037
sa(dp1038
g2
Vhttps://scontent-a.xx.fbcdn.net/hphotos-xaf1/v/t1.0-9/207327_10150207377508338_4829768_n.jpg?oh=c0a02207e35c649ddac6e5a1ae4a5443&oe=5560B1A3
p1039
sg4
V207327_10150207377508338_4829768_n.jpg?oh=c0a02207e35c649ddac6e5a1ae4a5443&oe=5560B1A3
p1040
sa(dp1041
g2
Vhttps://fbcdn-sphotos-e-a.akamaihd.net/hphotos-ak-xfp1/v/t1.0-9/215991_10150207377308338_3610019_n.jpg?oh=a566d566b0a042bfa23b9098ab56e4ca&oe=5595E4BE&__gda__=1431330476_509c600f709f19551122d382064c5e76
p1042
sg4
V215991_10150207377308338_3610019_n.jpg?oh=a566d566b0a042bfa23b9098ab56e4ca&oe=5595E4BE&__gda__=1431330476_509c600f709f19551122d382064c5e76
p1043
sa(dp1044
g2
Vhttps://fbcdn-sphotos-c-a.akamaihd.net/hphotos-ak-xaf1/v/t1.0-9/208619_10150207377103338_223527_n.jpg?oh=7238956d2f1d7871b9e32b84d1c7895b&oe=554CDDED&__gda__=1435952778_d58c3f46c4a0b2478cbcebfb1f4376d5
p1045
sg4
V208619_10150207377103338_223527_n.jpg?oh=7238956d2f1d7871b9e32b84d1c7895b&oe=554CDDED&__gda__=1435952778_d58c3f46c4a0b2478cbcebfb1f4376d5
p1046
sa(dp1047
g2
Vhttps://scontent-b.xx.fbcdn.net/hphotos-xfa1/v/t1.0-9/217711_10150207376818338_3402006_n.jpg?oh=0ab7ad3b3c325ecef2fab75c77ca1df8&oe=556798F9
p1048
sg4
V217711_10150207376818338_3402006_n.jpg?oh=0ab7ad3b3c325ecef2fab75c77ca1df8&oe=556798F9
p1049
sa(dp1050
g2
Vhttps://fbcdn-sphotos-f-a.akamaihd.net/hphotos-ak-xfa1/v/t1.0-9/207090_10150207376638338_2520418_n.jpg?oh=af21012b174fadc61352935557b8bfd2&oe=5554C610&__gda__=1433050798_cdba9139b6cba0dc80eee48648a8cfdd
p1051
sg4
V207090_10150207376638338_2520418_n.jpg?oh=af21012b174fadc61352935557b8bfd2&oe=5554C610&__gda__=1433050798_cdba9139b6cba0dc80eee48648a8cfdd
p1052
sa(dp1053
g2
Vhttps://fbcdn-sphotos-g-a.akamaihd.net/hphotos-ak-xaf1/v/t1.0-9/218014_10150207376473338_8257413_n.jpg?oh=3dba36565e76d866a21c426385baea6e&oe=555CCBDC&__gda__=1432321549_3162ba5a2f637bb886fe64a138aa5a38
p1054
sg4
V218014_10150207376473338_8257413_n.jpg?oh=3dba36565e76d866a21c426385baea6e&oe=555CCBDC&__gda__=1432321549_3162ba5a2f637bb886fe64a138aa5a38
p1055
sa(dp1056
g2
Vhttps://fbcdn-sphotos-a-a.akamaihd.net/hphotos-ak-xaf1/v/t1.0-9/208673_10150207376308338_7575951_n.jpg?oh=36d2f91e6ea745a4fcc71bf972a9caea&oe=554FFAA9&__gda__=1432019832_3370d62d2c4da886d690ef682f2283ff
p1057
sg4
V208673_10150207376308338_7575951_n.jpg?oh=36d2f91e6ea745a4fcc71bf972a9caea&oe=554FFAA9&__gda__=1432019832_3370d62d2c4da886d690ef682f2283ff
p1058
sa(dp1059
g2
Vhttps://fbcdn-sphotos-b-a.akamaihd.net/hphotos-ak-xpf1/v/t1.0-9/206365_10150207376148338_3999549_n.jpg?oh=0b214cbd4dcc87aa9342011c9e7a8f37&oe=55596811&__gda__=1431497640_79880135387231cc5e1b793fac72ae18
p1060
sg4
V206365_10150207376148338_3999549_n.jpg?oh=0b214cbd4dcc87aa9342011c9e7a8f37&oe=55596811&__gda__=1431497640_79880135387231cc5e1b793fac72ae18
p1061
sa(dp1062
g2
Vhttps://fbcdn-sphotos-h-a.akamaihd.net/hphotos-ak-xpf1/v/t1.0-9/215855_10150207375813338_6331087_n.jpg?oh=9761897fea065f7d0c53769cdf31cfc3&oe=554DAE2A&__gda__=1431351955_c017cf2fa22856d252aa9fbaf14e3c61
p1063
sg4
V215855_10150207375813338_6331087_n.jpg?oh=9761897fea065f7d0c53769cdf31cfc3&oe=554DAE2A&__gda__=1431351955_c017cf2fa22856d252aa9fbaf14e3c61
p1064
sa(dp1065
g2
Vhttps://fbcdn-sphotos-f-a.akamaihd.net/hphotos-ak-xfa1/v/t1.0-9/205515_10150207375563338_2350131_n.jpg?oh=ccc67ec013e698956512a7c43a86cc9f&oe=5567C3A0&__gda__=1435866398_ebdd4f03037a96ee889b9c943c5b336c
p1066
sg4
V205515_10150207375563338_2350131_n.jpg?oh=ccc67ec013e698956512a7c43a86cc9f&oe=5567C3A0&__gda__=1435866398_ebdd4f03037a96ee889b9c943c5b336c
p1067
sa(dp1068
g2
Vhttps://scontent-a.xx.fbcdn.net/hphotos-xaf1/v/t1.0-9/217160_10150207375368338_2212967_n.jpg?oh=98b60f1db824bbfb314436cdb5e1426b&oe=555CA0E6
p1069
sg4
V217160_10150207375368338_2212967_n.jpg?oh=98b60f1db824bbfb314436cdb5e1426b&oe=555CA0E6
p1070
sa(dp1071
g2
Vhttps://fbcdn-sphotos-g-a.akamaihd.net/hphotos-ak-xaf1/v/t1.0-9/206871_10150207375213338_1185849_n.jpg?oh=865b1177adea78a0006c937521c76fe5&oe=55689DA6&__gda__=1430864503_8dda07b1c84abfdff8cd932a3053b493
p1072
sg4
V206871_10150207375213338_1185849_n.jpg?oh=865b1177adea78a0006c937521c76fe5&oe=55689DA6&__gda__=1430864503_8dda07b1c84abfdff8cd932a3053b493
p1073
sa(dp1074
g2
Vhttps://fbcdn-sphotos-e-a.akamaihd.net/hphotos-ak-xaf1/v/t1.0-9/207721_10150207375063338_4060168_n.jpg?oh=8e3d417a8475b4c187676bcdbb4d4030&oe=5552F508&__gda__=1432314585_aa97e16c44670d06d00dab05e875e851
p1075
sg4
V207721_10150207375063338_4060168_n.jpg?oh=8e3d417a8475b4c187676bcdbb4d4030&oe=5552F508&__gda__=1432314585_aa97e16c44670d06d00dab05e875e851
p1076
sa(dp1077
g2
Vhttps://fbcdn-sphotos-c-a.akamaihd.net/hphotos-ak-xaf1/v/t1.0-9/206523_10150207374898338_2313260_n.jpg?oh=0d2ee4ff4314f19f15af315b6ab86dd7&oe=555AFD29&__gda__=1432953080_c8c491394590a904cb270b02160f5a73
p1078
sg4
V206523_10150207374898338_2313260_n.jpg?oh=0d2ee4ff4314f19f15af315b6ab86dd7&oe=555AFD29&__gda__=1432953080_c8c491394590a904cb270b02160f5a73
p1079
sa(dp1080
g2
Vhttps://scontent-b.xx.fbcdn.net/hphotos-xfa1/v/t1.0-9/215614_10150207374728338_5889056_n.jpg?oh=7411034f84b428e74884442487f8b84d&oe=5555181A
p1081
sg4
V215614_10150207374728338_5889056_n.jpg?oh=7411034f84b428e74884442487f8b84d&oe=5555181A
p1082
sa(dp1083
g2
Vhttps://fbcdn-sphotos-h-a.akamaihd.net/hphotos-ak-xfa1/v/t1.0-9/216400_10150207374568338_474004_n.jpg?oh=7b6ab0c6592eb8816c309e0b76d772b7&oe=554ECAAC&__gda__=1431553125_d8d05cf7efcfd41dc884fc7627740c64
p1084
sg4
V216400_10150207374568338_474004_n.jpg?oh=7b6ab0c6592eb8816c309e0b76d772b7&oe=554ECAAC&__gda__=1431553125_d8d05cf7efcfd41dc884fc7627740c64
p1085
sa(dp1086
g2
Vhttps://scontent-a.xx.fbcdn.net/hphotos-xaf1/v/t1.0-9/207801_10150207374303338_3588816_n.jpg?oh=b5678831476b8082a48d91334a4ec273&oe=554A4838
p1087
sg4
V207801_10150207374303338_3588816_n.jpg?oh=b5678831476b8082a48d91334a4ec273&oe=554A4838
p1088
sa(dp1089
g2
Vhttps://scontent-b.xx.fbcdn.net/hphotos-xfa1/v/t1.0-9/216680_10150207374143338_3337475_n.jpg?oh=df031618300549e7b0995f0ccf6fc7f5&oe=555FA08F
p1090
sg4
V216680_10150207374143338_3337475_n.jpg?oh=df031618300549e7b0995f0ccf6fc7f5&oe=555FA08F
p1091
sa(dp1092
g2
Vhttps://fbcdn-sphotos-b-a.akamaihd.net/hphotos-ak-xfa1/v/t1.0-9/205113_10150207374048338_3460718_n.jpg?oh=5f636fc31f47e5cf831683d068b0c50a&oe=554C9919&__gda__=1432905383_e8646404b3ba878a34e19ede90568b8d
p1093
sg4
V205113_10150207374048338_3460718_n.jpg?oh=5f636fc31f47e5cf831683d068b0c50a&oe=554C9919&__gda__=1432905383_e8646404b3ba878a34e19ede90568b8d
p1094
sa(dp1095
g2
Vhttps://fbcdn-sphotos-d-a.akamaihd.net/hphotos-ak-xfa1/v/t1.0-9/215820_10150207373883338_2330970_n.jpg?oh=810fecf080fb51f175ca41ce02bd01ce&oe=5569A65D&__gda__=1432480227_3b7e470fcc794436bf9a0910104dd0a5
p1096
sg4
V215820_10150207373883338_2330970_n.jpg?oh=810fecf080fb51f175ca41ce02bd01ce&oe=5569A65D&__gda__=1432480227_3b7e470fcc794436bf9a0910104dd0a5
p1097
sa(dp1098
g2
Vhttps://fbcdn-sphotos-f-a.akamaihd.net/hphotos-ak-xfa1/v/t1.0-9/218173_10150207373708338_3749257_n.jpg?oh=8e7888783e385e53a44ad8ef535d950a&oe=5564D810&__gda__=1432425646_f4aa23da817576f2999fc7616999edae
p1099
sg4
V218173_10150207373708338_3749257_n.jpg?oh=8e7888783e385e53a44ad8ef535d950a&oe=5564D810&__gda__=1432425646_f4aa23da817576f2999fc7616999edae
p1100
sa(dp1101
g2
Vhttps://fbcdn-sphotos-a-a.akamaihd.net/hphotos-ak-xaf1/v/t1.0-9/205699_10150207373548338_1738888_n.jpg?oh=972c819fd98ebdca01e692b1d1c2c8fe&oe=555388DC&__gda__=1432607245_3e1bdccba9f8e913b68c7c71c27ac228
p1102
sg4
V205699_10150207373548338_1738888_n.jpg?oh=972c819fd98ebdca01e692b1d1c2c8fe&oe=555388DC&__gda__=1432607245_3e1bdccba9f8e913b68c7c71c27ac228
p1103
sa(dp1104
g2
Vhttps://fbcdn-sphotos-g-a.akamaihd.net/hphotos-ak-xaf1/v/t1.0-9/216414_10150207373353338_6854508_n.jpg?oh=9870e132f71d9af4057614630226dc74&oe=555BCD1E&__gda__=1432317135_38a285a7a4e882ae09c5478e478196ef
p1105
sg4
V216414_10150207373353338_6854508_n.jpg?oh=9870e132f71d9af4057614630226dc74&oe=555BCD1E&__gda__=1432317135_38a285a7a4e882ae09c5478e478196ef
p1106
sa(dp1107
g2
Vhttps://fbcdn-sphotos-b-a.akamaihd.net/hphotos-ak-xfa1/v/t1.0-9/216444_10150207373163338_1940637_n.jpg?oh=08a20fc69f04caa2d36e89b4af03a160&oe=555C9B97&__gda__=1430808617_bc60261a6024ece556242d1d1f751b0b
p1108
sg4
V216444_10150207373163338_1940637_n.jpg?oh=08a20fc69f04caa2d36e89b4af03a160&oe=555C9B97&__gda__=1430808617_bc60261a6024ece556242d1d1f751b0b
p1109
sa(dp1110
g2
Vhttps://fbcdn-sphotos-d-a.akamaihd.net/hphotos-ak-xfa1/v/t1.0-9/216566_10150207372973338_3363119_n.jpg?oh=2fb2828efd3ff497b7af443c4e4738c8&oe=555114A0&__gda__=1432406814_6456da5fa51f6a42e9dd1665e11bca63
p1111
sg4
V216566_10150207372973338_3363119_n.jpg?oh=2fb2828efd3ff497b7af443c4e4738c8&oe=555114A0&__gda__=1432406814_6456da5fa51f6a42e9dd1665e11bca63
p1112
sa(dp1113
g2
Vhttps://scontent-a.xx.fbcdn.net/hphotos-xaf1/v/t1.0-9/215322_10150207372318338_127655_n.jpg?oh=34ed4498e8813e52c70b596731c2503b&oe=55610F6D
p1114
sg4
V215322_10150207372318338_127655_n.jpg?oh=34ed4498e8813e52c70b596731c2503b&oe=55610F6D
p1115
sa(dp1116
g2
Vhttps://fbcdn-sphotos-c-a.akamaihd.net/hphotos-ak-xaf1/v/t1.0-9/216388_10150207372143338_6927290_n.jpg?oh=8b1b2333bcd7b21a4b629299ce5be155&oe=5592D457&__gda__=1432641670_012615be0d3abf92d87287c92c709fd2
p1117
sg4
V216388_10150207372143338_6927290_n.jpg?oh=8b1b2333bcd7b21a4b629299ce5be155&oe=5592D457&__gda__=1432641670_012615be0d3abf92d87287c92c709fd2
p1118
sa(dp1119
g2
Vhttps://fbcdn-sphotos-e-a.akamaihd.net/hphotos-ak-xaf1/v/t1.0-9/217049_10150207371913338_1336057_n.jpg?oh=6bc6079ee1932f2ad21f619bcf986403&oe=55596A6A&__gda__=1431438267_1639ad5d331e0be546b67388e11459be
p1120
sg4
V217049_10150207371913338_1336057_n.jpg?oh=6bc6079ee1932f2ad21f619bcf986403&oe=55596A6A&__gda__=1431438267_1639ad5d331e0be546b67388e11459be
p1121
sa(dp1122
g2
Vhttps://scontent-b.xx.fbcdn.net/hphotos-xfa1/v/t1.0-9/215061_10150207371608338_8315114_n.jpg?oh=f027071e8eea32accf44cb1a6dc8fece&oe=5564A6AD
p1123
sg4
V215061_10150207371608338_8315114_n.jpg?oh=f027071e8eea32accf44cb1a6dc8fece&oe=5564A6AD
p1124
sa(dp1125
g2
Vhttps://fbcdn-sphotos-f-a.akamaihd.net/hphotos-ak-xfa1/v/t1.0-9/205199_10150207371433338_8143523_n.jpg?oh=c83a695727e7af968c11241242d8b78f&oe=55970D60&__gda__=1432910046_2a2424d10fe9c499609adf0d2b7b21c8
p1126
sg4
V205199_10150207371433338_8143523_n.jpg?oh=c83a695727e7af968c11241242d8b78f&oe=55970D60&__gda__=1432910046_2a2424d10fe9c499609adf0d2b7b21c8
p1127
sa(dp1128
g2
Vhttps://fbcdn-sphotos-e-a.akamaihd.net/hphotos-ak-xaf1/v/t1.0-9/208013_10150207371258338_3761904_n.jpg?oh=dd3ad11a820ddd6242b7182238553820&oe=556153BA&__gda__=1431175019_3b6b27940a1f820c4e1f556a43816eef
p1129
sg4
V208013_10150207371258338_3761904_n.jpg?oh=dd3ad11a820ddd6242b7182238553820&oe=556153BA&__gda__=1431175019_3b6b27940a1f820c4e1f556a43816eef
p1130
sa(dp1131
g2
Vhttps://scontent-a.xx.fbcdn.net/hphotos-xaf1/v/t1.0-9/207655_10150207370993338_7151038_n.jpg?oh=1b7f0d6bda30bb674cb88080671c4bba&oe=5568DD28
p1132
sg4
V207655_10150207370993338_7151038_n.jpg?oh=1b7f0d6bda30bb674cb88080671c4bba&oe=5568DD28
p1133
sa(dp1134
g2
Vhttps://scontent-b.xx.fbcdn.net/hphotos-xpf1/v/t1.0-9/207506_10150207370823338_7683511_n.jpg?oh=771572105a5302706fdf8521658a4dba&oe=556542F4
p1135
sg4
V207506_10150207370823338_7683511_n.jpg?oh=771572105a5302706fdf8521658a4dba&oe=556542F4
p1136
sa(dp1137
g2
Vhttps://fbcdn-sphotos-d-a.akamaihd.net/hphotos-ak-xfa1/v/t1.0-9/218131_10150207370648338_3815536_n.jpg?oh=21c452065f0e19ca346c3a472368376a&oe=5559C32E&__gda__=1431014544_7d11da4faeed4d2772a95875e2740bed
p1138
sg4
V218131_10150207370648338_3815536_n.jpg?oh=21c452065f0e19ca346c3a472368376a&oe=5559C32E&__gda__=1431014544_7d11da4faeed4d2772a95875e2740bed
p1139
sa(dp1140
g2
Vhttps://fbcdn-sphotos-b-a.akamaihd.net/hphotos-ak-xfa1/v/t1.0-9/206795_10150207370493338_3070153_n.jpg?oh=43f13dc03d07397ef71f90924af43fa6&oe=5594F0C9&__gda__=1432749687_63b9b8b954c47ec08463ea227b4b10c9
p1141
sg4
V206795_10150207370493338_3070153_n.jpg?oh=43f13dc03d07397ef71f90924af43fa6&oe=5594F0C9&__gda__=1432749687_63b9b8b954c47ec08463ea227b4b10c9
p1142
sa(dp1143
g2
Vhttps://fbcdn-sphotos-c-a.akamaihd.net/hphotos-ak-xaf1/v/t1.0-9/207204_10150207370313338_5817672_n.jpg?oh=5df6463f97514f31420ec90f40cdd9ec&oe=5596420D&__gda__=1432558556_adf658af264c7816c5d90c8e32cdecc4
p1144
sg4
V207204_10150207370313338_5817672_n.jpg?oh=5df6463f97514f31420ec90f40cdd9ec&oe=5596420D&__gda__=1432558556_adf658af264c7816c5d90c8e32cdecc4
p1145
sa(dp1146
g2
Vhttps://fbcdn-sphotos-f-a.akamaihd.net/hphotos-ak-xfa1/v/t1.0-9/206934_10150207370133338_2443283_n.jpg?oh=f05bc9f7f254f6811609a4899668a6ec&oe=5558DC56&__gda__=1431774696_f99f785467df54dea1466e1af39bbb0e
p1147
sg4
V206934_10150207370133338_2443283_n.jpg?oh=f05bc9f7f254f6811609a4899668a6ec&oe=5558DC56&__gda__=1431774696_f99f785467df54dea1466e1af39bbb0e
p1148
sa(dp1149
g2
Vhttps://fbcdn-sphotos-d-a.akamaihd.net/hphotos-ak-xfa1/v/t1.0-9/215730_10150207369868338_8183599_n.jpg?oh=40d7eae3957745a8ddeeec8c56d0761c&oe=555E4FED&__gda__=1431336787_bd585a4cfed69820478f7720a679d059
p1150
sg4
V215730_10150207369868338_8183599_n.jpg?oh=40d7eae3957745a8ddeeec8c56d0761c&oe=555E4FED&__gda__=1431336787_bd585a4cfed69820478f7720a679d059
p1151
sa(dp1152
g2
Vhttps://scontent-b.xx.fbcdn.net/hphotos-xfa1/v/t1.0-9/207420_10150207369538338_4153814_n.jpg?oh=08a3ee6f7bdcce82aeb16c4de6f88f71&oe=55953B7F
p1153
sg4
V207420_10150207369538338_4153814_n.jpg?oh=08a3ee6f7bdcce82aeb16c4de6f88f71&oe=55953B7F
p1154
sa(dp1155
g2
Vhttps://fbcdn-sphotos-c-a.akamaihd.net/hphotos-ak-xaf1/v/t1.0-9/216734_10150207369298338_5183875_n.jpg?oh=44324ebca3b495ca4914cb8ecbb9dba1&oe=5559DF40&__gda__=1433028241_722a5667fdd4e1eefd66ccff9c05e820
p1156
sg4
V216734_10150207369298338_5183875_n.jpg?oh=44324ebca3b495ca4914cb8ecbb9dba1&oe=5559DF40&__gda__=1433028241_722a5667fdd4e1eefd66ccff9c05e820
p1157
sa(dp1158
g2
Vhttps://scontent-a.xx.fbcdn.net/hphotos-xaf1/v/t1.0-9/216431_10150207369168338_1093352_n.jpg?oh=e211e05a51ef5da023feae3cdbd1915e&oe=5568B875
p1159
sg4
V216431_10150207369168338_1093352_n.jpg?oh=e211e05a51ef5da023feae3cdbd1915e&oe=5568B875
p1160
sa(dp1161
g2
Vhttps://fbcdn-sphotos-g-a.akamaihd.net/hphotos-ak-xfp1/v/t1.0-9/205549_10150207369013338_4008280_n.jpg?oh=80d2d970e85ec5735898d117ddd5d564&oe=5549ACBE&__gda__=1431830444_e4bb616fe9fe64ad107704401f19e6c2
p1162
sg4
V205549_10150207369013338_4008280_n.jpg?oh=80d2d970e85ec5735898d117ddd5d564&oe=5549ACBE&__gda__=1431830444_e4bb616fe9fe64ad107704401f19e6c2
p1163
sa(dp1164
g2
Vhttps://fbcdn-sphotos-e-a.akamaihd.net/hphotos-ak-xaf1/v/t1.0-9/217503_10150207368918338_5537025_n.jpg?oh=49f0b0fe53fb7ac4887abecddcea46d2&oe=554EC5D9&__gda__=1431377160_f4be2b9c1f0c3e6efe718dbd44035706
p1165
sg4
V217503_10150207368918338_5537025_n.jpg?oh=49f0b0fe53fb7ac4887abecddcea46d2&oe=554EC5D9&__gda__=1431377160_f4be2b9c1f0c3e6efe718dbd44035706
p1166
sa(dp1167
g2
Vhttps://fbcdn-sphotos-c-a.akamaihd.net/hphotos-ak-xaf1/v/t1.0-9/217403_10150207368738338_1237296_n.jpg?oh=aa4696423b41ecda1e8cd32db041ab5b&oe=554EDAD3&__gda__=1432682242_ec29760d65c78124149b947092c9cad9
p1168
sg4
V217403_10150207368738338_1237296_n.jpg?oh=aa4696423b41ecda1e8cd32db041ab5b&oe=554EDAD3&__gda__=1432682242_ec29760d65c78124149b947092c9cad9
p1169
sa(dp1170
g2
Vhttps://scontent-b.xx.fbcdn.net/hphotos-xfa1/v/t1.0-9/206476_10150207368508338_7141543_n.jpg?oh=0f23b27fed87fbff2f1069074e130902&oe=55620997
p1171
sg4
V206476_10150207368508338_7141543_n.jpg?oh=0f23b27fed87fbff2f1069074e130902&oe=55620997
p1172
sa(dp1173
g2
Vhttps://scontent-b.xx.fbcdn.net/hphotos-xfa1/v/t1.0-9/205704_10150207368128338_1231142_n.jpg?oh=6a92fda2545abc74034ba0542db234c8&oe=555CC1AA
p1174
sg4
V205704_10150207368128338_1231142_n.jpg?oh=6a92fda2545abc74034ba0542db234c8&oe=555CC1AA
p1175
sa(dp1176
g2
Vhttps://fbcdn-sphotos-h-a.akamaihd.net/hphotos-ak-xfa1/v/t1.0-9/217016_10150207367983338_7223828_n.jpg?oh=d55da4132c10b6edcd0acbc451c11fba&oe=55495C81&__gda__=1435966527_c1af6b3a242d15825f1f02cef343578d
p1177
sg4
V217016_10150207367983338_7223828_n.jpg?oh=d55da4132c10b6edcd0acbc451c11fba&oe=55495C81&__gda__=1435966527_c1af6b3a242d15825f1f02cef343578d
p1178
sa(dp1179
g2
Vhttps://fbcdn-sphotos-c-a.akamaihd.net/hphotos-ak-xaf1/v/t1.0-9/216088_10150207367803338_7744411_n.jpg?oh=03bb7c088b11ae7b22a9de3fef43b958&oe=5557D4ED&__gda__=1432018748_654b50dc675df26259998e7cb1df63af
p1180
sg4
V216088_10150207367803338_7744411_n.jpg?oh=03bb7c088b11ae7b22a9de3fef43b958&oe=5557D4ED&__gda__=1432018748_654b50dc675df26259998e7cb1df63af
p1181
sa(dp1182
g2
Vhttps://fbcdn-sphotos-e-a.akamaihd.net/hphotos-ak-xaf1/v/t1.0-9/208277_10150207367623338_1044914_n.jpg?oh=8cb209ff3831a33bb1c5e669f15e9b24&oe=559297B6&__gda__=1432743527_0f2004e136a9b957963f60c98d43afe8
p1183
sg4
V208277_10150207367623338_1044914_n.jpg?oh=8cb209ff3831a33bb1c5e669f15e9b24&oe=559297B6&__gda__=1432743527_0f2004e136a9b957963f60c98d43afe8
p1184
sa(dp1185
g2
Vhttps://fbcdn-sphotos-g-a.akamaihd.net/hphotos-ak-xaf1/v/t1.0-9/208000_10150207367518338_1989072_n.jpg?oh=e6528ebc0c02aea522b6d58c894280cc&oe=55663831&__gda__=1431631328_a9b252af1792baca95505121e2e1d13f
p1186
sg4
V208000_10150207367518338_1989072_n.jpg?oh=e6528ebc0c02aea522b6d58c894280cc&oe=55663831&__gda__=1431631328_a9b252af1792baca95505121e2e1d13f
p1187
sa(dp1188
g2
Vhttps://scontent-a.xx.fbcdn.net/hphotos-xfp1/v/t1.0-9/205428_10150207367328338_1029326_n.jpg?oh=99ab6a64bf97e222fa4f4bac8d7402d3&oe=555BF5D1
p1189
sg4
V205428_10150207367328338_1029326_n.jpg?oh=99ab6a64bf97e222fa4f4bac8d7402d3&oe=555BF5D1
p1190
sa(dp1191
g2
Vhttps://scontent-b.xx.fbcdn.net/hphotos-xfa1/v/t1.0-9/206622_10150207367158338_8078129_n.jpg?oh=f8a48f7253b4538a2e0421cc93d9ffd2&oe=555B90FD
p1192
sg4
V206622_10150207367158338_8078129_n.jpg?oh=f8a48f7253b4538a2e0421cc93d9ffd2&oe=555B90FD
p1193
sa(dp1194
g2
Vhttps://scontent-b.xx.fbcdn.net/hphotos-xfa1/v/t1.0-9/217285_10150207367038338_5422668_n.jpg?oh=35d3d29ac41a647f13f64786e0127660&oe=554FA2C9
p1195
sg4
V217285_10150207367038338_5422668_n.jpg?oh=35d3d29ac41a647f13f64786e0127660&oe=554FA2C9
p1196
sa(dp1197
g2
Vhttps://fbcdn-sphotos-c-a.akamaihd.net/hphotos-ak-xaf1/v/t1.0-9/218106_10150207366843338_2884496_n.jpg?oh=edd2be4a97db2c7c4b5fc12806e03ed9&oe=5592A217&__gda__=1432278982_908aaa3a84959c1ce4ac0bac14104e2b
p1198
sg4
V218106_10150207366843338_2884496_n.jpg?oh=edd2be4a97db2c7c4b5fc12806e03ed9&oe=5592A217&__gda__=1432278982_908aaa3a84959c1ce4ac0bac14104e2b
p1199
sa(dp1200
g2
Vhttps://scontent-a.xx.fbcdn.net/hphotos-xfp1/v/t1.0-9/207598_10150207366698338_213526_n.jpg?oh=ae99926a89886fde23db9b0c5d291469&oe=554D5CAB
p1201
sg4
V207598_10150207366698338_213526_n.jpg?oh=ae99926a89886fde23db9b0c5d291469&oe=554D5CAB
p1202
sa(dp1203
g2
Vhttps://scontent-a.xx.fbcdn.net/hphotos-xaf1/v/t1.0-9/217409_10150207366543338_5737004_n.jpg?oh=db846c7d0fe66b332a998973ef9ce5c8&oe=555999F7
p1204
sg4
V217409_10150207366543338_5737004_n.jpg?oh=db846c7d0fe66b332a998973ef9ce5c8&oe=555999F7
p1205
sa(dp1206
g2
Vhttps://fbcdn-sphotos-a-a.akamaihd.net/hphotos-ak-xaf1/v/t1.0-9/205098_10150207366408338_1562224_n.jpg?oh=dc1bc22ec565c52dbe72c52419fc682f&oe=554FE52B&__gda__=1431674874_4fde6d645ad0ea79efcddf27e9a97ead
p1207
sg4
V205098_10150207366408338_1562224_n.jpg?oh=dc1bc22ec565c52dbe72c52419fc682f&oe=554FE52B&__gda__=1431674874_4fde6d645ad0ea79efcddf27e9a97ead
p1208
sa(dp1209
g2
Vhttps://scontent-b.xx.fbcdn.net/hphotos-xfa1/v/t1.0-9/206391_10150207366188338_4204705_n.jpg?oh=6609f4a2ad4ad9c30f14b2f7563d7284&oe=5564A862
p1210
sg4
V206391_10150207366188338_4204705_n.jpg?oh=6609f4a2ad4ad9c30f14b2f7563d7284&oe=5564A862
p1211
sa(dp1212
g2
Vhttps://scontent-a.xx.fbcdn.net/hphotos-xaf1/v/t1.0-9/200432_10150163619793338_4934115_n.jpg?oh=c2f3c0b0b67b205e205e5cbcd5f31195&oe=5596D47D
p1213
sg4
V200432_10150163619793338_4934115_n.jpg?oh=c2f3c0b0b67b205e205e5cbcd5f31195&oe=5596D47D
p1214
sa(dp1215
g2
Vhttps://fbcdn-sphotos-d-a.akamaihd.net/hphotos-ak-xfa1/v/t1.0-9/197501_10150160278233338_1560758_n.jpg?oh=7379340d0c8c9e0a63b0d856657e4b0f&oe=5554E741&__gda__=1435726591_ef54c03910702688d609b5db45e8d3c1
p1216
sg4
V197501_10150160278233338_1560758_n.jpg?oh=7379340d0c8c9e0a63b0d856657e4b0f&oe=5554E741&__gda__=1435726591_ef54c03910702688d609b5db45e8d3c1
p1217
sa(dp1218
g2
Vhttps://scontent-b.xx.fbcdn.net/hphotos-xfa1/v/t1.0-9/184285_10150136976908338_1010388_n.jpg?oh=227e9a10bb89004d90b99fdde590b2b7&oe=555093D9
p1219
sg4
VCredits to Nicole FangJumba for this super hot modelbollywood superstar pic of me D93D9
p1220
sa(dp1221
g2
Vhttps://scontent-a.xx.fbcdn.net/hphotos-xpa1/v/t1.0-9/181783_10150133651368338_8032373_n.jpg?oh=732411855193ccca80174570067acb84&oe=55550EDC
p1222
sg4
V181783_10150133651368338_8032373_n.jpg?oh=732411855193ccca80174570067acb84&oe=55550EDC
p1223
sa(dp1224
g2
Vhttps://scontent-b.xx.fbcdn.net/hphotos-xfa1/v/t1.0-9/181821_10150131103988338_7354222_n.jpg?oh=fec2002e4ff694124ece1ba426d5afe2&oe=556880FF
p1225
sg4
V181821_10150131103988338_7354222_n.jpg?oh=fec2002e4ff694124ece1ba426d5afe2&oe=556880FF
p1226
sa(dp1227
g2
Vhttps://scontent-a.xx.fbcdn.net/hphotos-xaf1/v/t1.0-9/179233_10150131103803338_7916017_n.jpg?oh=b7952760f7946d13036159f69374aa02&oe=5564DBC5
p1228
sg4
V179233_10150131103803338_7916017_n.jpg?oh=b7952760f7946d13036159f69374aa02&oe=5564DBC5
p1229
sa(dp1230
g2
Vhttps://scontent-a.xx.fbcdn.net/hphotos-xaf1/v/t1.0-9/181957_10150131103588338_1966864_n.jpg?oh=fc2927019e8c215351385e6a845cd880&oe=555CAEAA
p1231
sg4
V181957_10150131103588338_1966864_n.jpg?oh=fc2927019e8c215351385e6a845cd880&oe=555CAEAA
p1232
sa(dp1233
g2
Vhttps://scontent-b.xx.fbcdn.net/hphotos-frc3/v/t1.0-9/181745_10150131103453338_1158860_n.jpg?oh=0dbf756c87dc7a6dedaf2547b6500948&oe=5554C044
p1234
sg4
V181745_10150131103453338_1158860_n.jpg?oh=0dbf756c87dc7a6dedaf2547b6500948&oe=5554C044
p1235
sa(dp1236
g2
Vhttps://scontent-a.xx.fbcdn.net/hphotos-xap1/v/t1.0-9/180445_10150131103318338_631699_n.jpg?oh=5f4871d07027561e9e9d7af0c033f31b&oe=554DD44D
p1237
sg4
V180445_10150131103318338_631699_n.jpg?oh=5f4871d07027561e9e9d7af0c033f31b&oe=554DD44D
p1238
sa(dp1239
g2
Vhttps://scontent-a.xx.fbcdn.net/hphotos-xfp1/v/t1.0-9/179845_10150131103213338_6538068_n.jpg?oh=89d9f09961f14bb9d8bb5c63ffb687e7&oe=55679C59
p1240
sg4
V166-Bus that takes to and from school9C59
p1241
sa(dp1242
g2
Vhttps://fbcdn-sphotos-g-a.akamaihd.net/hphotos-ak-xaf1/v/t1.0-9/181509_10150131103113338_8003370_n.jpg?oh=cfbbcf705c6f0bc1488aaa0b08fd73ac&oe=554F40D4&__gda__=1431037445_2d70284369d68e2bc9d1e2a58cb02835
p1243
sg4
VCatholic Church of St Teresa2835
p1244
sa(dp1245
g2
Vhttps://scontent-b.xx.fbcdn.net/hphotos-xpf1/v/t1.0-9/166889_10150131102893338_6445640_n.jpg?oh=cfdcc1dae483d3c18e6fb1caad000b86&oe=5550C5D4
p1246
sg4
V166889_10150131102893338_6445640_n.jpg?oh=cfdcc1dae483d3c18e6fb1caad000b86&oe=5550C5D4
p1247
sa(dp1248
g2
Vhttps://fbcdn-sphotos-a-a.akamaihd.net/hphotos-ak-xaf1/v/t1.0-9/181477_10150131102768338_582747_n.jpg?oh=bee2b399ee80b6c396b8adac88a0b9f2&oe=554E463D&__gda__=1431684442_f4735ff985d0caede85f611a88a2bb78
p1249
sg4
V181477_10150131102768338_582747_n.jpg?oh=bee2b399ee80b6c396b8adac88a0b9f2&oe=554E463D&__gda__=1431684442_f4735ff985d0caede85f611a88a2bb78
p1250
sa(dp1251
g2
Vhttps://fbcdn-sphotos-c-a.akamaihd.net/hphotos-ak-frc3/v/t1.0-9/167969_10150131102638338_3636781_n.jpg?oh=f14c36726e790d752223e262210c25f7&oe=5560E405&__gda__=1432422746_1f389a393d57bc1d973de6e64238164e
p1252
sg4
VYES you see litter in singapore too164e
p1253
sa(dp1254
g2
Vhttps://fbcdn-sphotos-h-a.akamaihd.net/hphotos-ak-xpa1/v/t1.0-9/1914183_10150131102493338_5410905_n.jpg?oh=5dd837246f77de83803f9dc79081800c&oe=5566EDBC&__gda__=1435654863_bca43a42e64084b2fc6634c0ee9189dd
p1255
sg4
VIxoras89dd
p1256
sa(dp1257
g2
Vhttps://scontent-a.xx.fbcdn.net/hphotos-xaf1/v/t1.0-9/179393_10150131102348338_6927857_n.jpg?oh=b28d81cd093bee9acb69e48f2ac52f58&oe=5558D3A2
p1258
sg4
V179393_10150131102348338_6927857_n.jpg?oh=b28d81cd093bee9acb69e48f2ac52f58&oe=5558D3A2
p1259
sa(dp1260
g2
Vhttps://scontent-b.xx.fbcdn.net/hphotos-frc3/v/t1.0-9/180061_10150131102298338_3458339_n.jpg?oh=6307b51a635a0905d8a292fabc498dcf&oe=555940B9
p1261
sg4
VTourists40B9
p1262
sa(dp1263
g2
Vhttps://scontent-b.xx.fbcdn.net/hphotos-xfa1/v/t1.0-9/181961_10150131102208338_5358168_n.jpg?oh=6fd59188f1fbf1fcb38cad1bb0fe77e9&oe=555D4638
p1264
sg4
VChinese new year sales4638
p1265
sa(dp1266
g2
Vhttps://fbcdn-sphotos-e-a.akamaihd.net/hphotos-ak-xaf1/v/t1.0-9/179209_10150131102073338_5168877_n.jpg?oh=9e93719a5fd00cab006e342fa2f650c2&oe=5550E6DD&__gda__=1431014924_38a7a39cbd94aed83328cd89cf3ec720
p1267
sg4
V179209_10150131102073338_5168877_n.jpg?oh=9e93719a5fd00cab006e342fa2f650c2&oe=5550E6DD&__gda__=1431014924_38a7a39cbd94aed83328cd89cf3ec720
p1268
sa(dp1269
g2
Vhttps://scontent-a.xx.fbcdn.net/hphotos-xfp1/v/t1.0-9/168157_10150131101953338_5721347_n.jpg?oh=352c81957ad8723bee1ea87e78ac477b&oe=55488023
p1270
sg4
VSome really cool car Anyone knows the name8023
p1271
sa(dp1272
g2
Vhttps://fbcdn-sphotos-d-a.akamaihd.net/hphotos-ak-ash2/v/t1.0-9/167961_10150131101823338_2424509_n.jpg?oh=2ead40972e4190cd739d4c0ebbb9a5fc&oe=554D98DD&__gda__=1432321340_0e380fc715bb93133854b9ec6b57dc5d
p1273
sg4
V167961_10150131101823338_2424509_n.jpg?oh=2ead40972e4190cd739d4c0ebbb9a5fc&oe=554D98DD&__gda__=1432321340_0e380fc715bb93133854b9ec6b57dc5d
p1274
sa(dp1275
g2
Vhttps://fbcdn-sphotos-f-a.akamaihd.net/hphotos-ak-prn2/v/t1.0-9/180481_10150131101773338_8266082_n.jpg?oh=7f611c6124d24809b36d97bae3d78abf&oe=55670DC2&__gda__=1431250572_638d1d00ae124b9305ac74105a1b2fd2
p1276
sg4
VLadies these daysso preoccupied2fd2
p1277
sa(dp1278
g2
Vhttps://fbcdn-sphotos-b-a.akamaihd.net/hphotos-ak-xfa1/v/t1.0-9/168937_10150131101648338_3285210_n.jpg?oh=6d1d9a22dc3357df2eb55282e4e17071&oe=555FC31F&__gda__=1435696033_6a197d747336106248e627c15d836a5a
p1279
sg4
V168937_10150131101648338_3285210_n.jpg?oh=6d1d9a22dc3357df2eb55282e4e17071&oe=555FC31F&__gda__=1435696033_6a197d747336106248e627c15d836a5a
p1280
sa(dp1281
g2
Vhttps://fbcdn-sphotos-e-a.akamaihd.net/hphotos-ak-xap1/v/t1.0-9/167317_10150131101538338_3524325_n.jpg?oh=99ae46b24dbdde308dedf151df067576&oe=5569D253&__gda__=1435730299_d96a09c98a7e7840ffc087168d58c712
p1282
sg4
VSingapore Flyerc712
p1283
sa(dp1284
g2
Vhttps://fbcdn-sphotos-d-a.akamaihd.net/hphotos-ak-xfa1/v/t1.0-9/180325_10150131101388338_1276566_n.jpg?oh=dcd380274176d97c1b01b48e633da142&oe=5563A697&__gda__=1432470569_fc8b0a1456ad970f299f37dd4aa9c715
p1285
sg4
V180325_10150131101388338_1276566_n.jpg?oh=dcd380274176d97c1b01b48e633da142&oe=5563A697&__gda__=1432470569_fc8b0a1456ad970f299f37dd4aa9c715
p1286
sa(dp1287
g2
Vhttps://scontent-b.xx.fbcdn.net/hphotos-xpf1/v/t1.0-9/167117_10150131101283338_3276581_n.jpg?oh=f5450ea66d1b98948e73e53560a9caef&oe=556493F2
p1288
sg4
VInfinity Pool  Marina Bay sands93F2
p1289
sa(dp1290
g2
Vhttps://fbcdn-sphotos-b-a.akamaihd.net/hphotos-ak-prn2/v/t1.0-9/180745_10150131101153338_3923545_n.jpg?oh=f1fc87a71fe9c9f104610671910d039b&oe=555A40FF&__gda__=1433046961_ac5233f13d6fbe52b0836de63273e698
p1291
sg4
V180745_10150131101153338_3923545_n.jpg?oh=f1fc87a71fe9c9f104610671910d039b&oe=555A40FF&__gda__=1433046961_ac5233f13d6fbe52b0836de63273e698
p1292
sa(dp1293
g2
Vhttps://scontent-b.xx.fbcdn.net/hphotos-xfa1/v/t1.0-9/179361_10150131100993338_242233_n.jpg?oh=b1d17a02bd235b910e359874206fae76&oe=55572654
p1294
sg4
VMarina Bay Sands D2654
p1295
sa(dp1296
g2
Vhttps://scontent-a.xx.fbcdn.net/hphotos-xap1/v/t1.0-9/167345_10150131100813338_508356_n.jpg?oh=ddd268404e353337d53054ad627189d1&oe=5555BF88
p1297
sg4
VMy primary schoolBF88
p1298
sa(dp1299
g2
Vhttps://fbcdn-sphotos-g-a.akamaihd.net/hphotos-ak-ash2/v/t1.0-9/180025_10150131100678338_3550094_n.jpg?oh=87d3e6b390bfc6387cc96c7d11cf2f18&oe=55576449&__gda__=1431842728_8f886f7584c67854faa96ce7bcef3bb8
p1300
sg4
V180025_10150131100678338_3550094_n.jpg?oh=87d3e6b390bfc6387cc96c7d11cf2f18&oe=55576449&__gda__=1431842728_8f886f7584c67854faa96ce7bcef3bb8
p1301
sa(dp1302
g2
Vhttps://fbcdn-sphotos-d-a.akamaihd.net/hphotos-ak-xfa1/v/t1.0-9/179381_10150131100523338_2106690_n.jpg?oh=5b98b2261e1d43e556d154354ef67468&oe=55574963&__gda__=1431354077_62e9dbdf89a848c15714e5f60f744d92
p1303
sg4
V179381_10150131100523338_2106690_n.jpg?oh=5b98b2261e1d43e556d154354ef67468&oe=55574963&__gda__=1431354077_62e9dbdf89a848c15714e5f60f744d92
p1304
sa(dp1305
g2
Vhttps://scontent-b.xx.fbcdn.net/hphotos-xpa1/v/t1.0-9/1914837_10150131100403338_5146616_n.jpg?oh=7d549686cc5037f0953caed23a5bb0fa&oe=555AB471
p1306
sg4
V1914837_10150131100403338_5146616_n.jpg?oh=7d549686cc5037f0953caed23a5bb0fa&oe=555AB471
p1307
sa(dp1308
g2
Vhttps://fbcdn-sphotos-e-a.akamaihd.net/hphotos-ak-xap1/v/t1.0-9/167077_10150131100298338_4668314_n.jpg?oh=58d4feddef1fd46728722828e85222c3&oe=55543C74&__gda__=1432713820_55d197f33cea26adb2f468f6ec35ed6b
p1309
sg4
V167077_10150131100298338_4668314_n.jpg?oh=58d4feddef1fd46728722828e85222c3&oe=55543C74&__gda__=1432713820_55d197f33cea26adb2f468f6ec35ed6b
p1310
sa(dp1311
g2
Vhttps://scontent-b.xx.fbcdn.net/hphotos-ash2/v/t1.0-9/167645_10150131100208338_7143714_n.jpg?oh=96bc78e63e8a6b67ea78c919c30ad731&oe=55661F1D
p1312
sg4
V167645_10150131100208338_7143714_n.jpg?oh=96bc78e63e8a6b67ea78c919c30ad731&oe=55661F1D
p1313
sa(dp1314
g2
Vhttps://scontent-b.xx.fbcdn.net/hphotos-xpa1/v/t1.0-9/179889_10150131100093338_8193268_n.jpg?oh=62760ffff39fa307637f4d3e5db0fe57&oe=5558A0B5
p1315
sg4
V179889_10150131100093338_8193268_n.jpg?oh=62760ffff39fa307637f4d3e5db0fe57&oe=5558A0B5
p1316
sa(dp1317
g2
Vhttps://scontent-b.xx.fbcdn.net/hphotos-ash2/v/t1.0-9/167273_10150131100033338_1767739_n.jpg?oh=d67350d5baf625719ff1e9f9ae38e2af&oe=559381BF
p1318
sg4
VBritish style mansions81BF
p1319
sa(dp1320
g2
Vhttps://fbcdn-sphotos-g-a.akamaihd.net/hphotos-ak-xpf1/v/t1.0-9/167097_10150131099833338_6456447_n.jpg?oh=7fb6cde716a1b6c6bfb0a113155a081a&oe=554921BF&__gda__=1430861574_ba3481a058b3268700e54a4d854f4e82
p1321
sg4
VMount Faber4e82
p1322
sa(dp1323
g2
Vhttps://fbcdn-sphotos-a-a.akamaihd.net/hphotos-ak-xpf1/v/t1.0-9/180421_10150131099673338_4600959_n.jpg?oh=d51bb40278ecd3c7282416e2b9c6c23d&oe=554D228B&__gda__=1432914226_d1f52711d4cb5efbc2b54413b04a125e
p1324
sg4
VSee that dude in the middle and what he is doing125e
p1325
sa(dp1326
g2
Vhttps://scontent-b.xx.fbcdn.net/hphotos-ash2/v/t1.0-9/180025_10150131099098338_2750051_n.jpg?oh=d56b921e1a8a3d2c74ae38ceed1ce539&oe=55686C04
p1327
sg4
V180025_10150131099098338_2750051_n.jpg?oh=d56b921e1a8a3d2c74ae38ceed1ce539&oe=55686C04
p1328
sa(dp1329
g2
Vhttps://scontent-a.xx.fbcdn.net/hphotos-xaf1/v/t1.0-9/181369_10150131098938338_2203181_n.jpg?oh=267373ba3c07d1f7db0ba402592c1f66&oe=554D6698
p1330
sg4
VIve gone there so many times Im practically sick of it now6698
p1331
sa(dp1332
g2
Vhttps://fbcdn-sphotos-g-a.akamaihd.net/hphotos-ak-frc3/v/t1.0-9/167653_10150131098758338_1424071_n.jpg?oh=58929c1c676794054b1bae31f64ab639&oe=555707D8&__gda__=1431522439_c1cce5bcca0f60608c52834f24940b74
p1333
sg4
V167653_10150131098758338_1424071_n.jpg?oh=58929c1c676794054b1bae31f64ab639&oe=555707D8&__gda__=1431522439_c1cce5bcca0f60608c52834f24940b74
p1334
sa(dp1335
g2
Vhttps://fbcdn-sphotos-e-a.akamaihd.net/hphotos-ak-xfp1/v/t1.0-9/166841_10150131098603338_4508435_n.jpg?oh=82fe01dbdeaf62133f93a0a46ca22b89&oe=555EE0AF&__gda__=1435714237_4a5eacab9a3f82d8b2949f4b594d1115
p1336
sg4
V166841_10150131098603338_4508435_n.jpg?oh=82fe01dbdeaf62133f93a0a46ca22b89&oe=555EE0AF&__gda__=1435714237_4a5eacab9a3f82d8b2949f4b594d1115
p1337
sa(dp1338
g2
Vhttps://fbcdn-sphotos-e-a.akamaihd.net/hphotos-ak-xaf1/v/t1.0-9/181521_10150131098478338_4506327_n.jpg?oh=f84d033b94905172d97eaac799fdbf20&oe=554849C7&__gda__=1431676182_40ba258d0da296cefe1d5044ccfd056d
p1339
sg4
VMRT station Orchard056d
p1340
sa(dp1341
g2
Vhttps://scontent-b.xx.fbcdn.net/hphotos-xfp1/v/t1.0-9/180409_10150131098338338_3540864_n.jpg?oh=d73c42fae8f8b63447d0ce59fa85eac1&oe=55949979
p1342
sg4
VKopitiams and foodcourts Youll always see Singaporeans there9979
p1343
sa(dp1344
g2
Vhttps://fbcdn-sphotos-d-a.akamaihd.net/hphotos-ak-frc3/v/t1.0-9/181725_10150131098263338_1524184_n.jpg?oh=13ca60884ba911aac6c3f13fea809d72&oe=555CDA05&__gda__=1431081562_aa9d68e5cb708f9f26a59241a4ed9e32
p1345
sg4
VSugarcane-walla9e32
p1346
sa(dp1347
g2
Vhttps://scontent-b.xx.fbcdn.net/hphotos-prn2/v/t1.0-9/180477_10150131098143338_8252973_n.jpg?oh=f78cc10b24bbff442486758b6c58a629&oe=5548E823
p1348
sg4
V180477_10150131098143338_8252973_n.jpg?oh=f78cc10b24bbff442486758b6c58a629&oe=5548E823
p1349
sa(dp1350
g2
Vhttps://scontent-b.xx.fbcdn.net/hphotos-prn2/v/t1.0-9/181993_10150131098043338_1854980_n.jpg?oh=25ae6545ee9f80c3db5cb638dc017363&oe=554860E9
p1351
sg4
V181993_10150131098043338_1854980_n.jpg?oh=25ae6545ee9f80c3db5cb638dc017363&oe=554860E9
p1352
sa(dp1353
g2
Vhttps://scontent-a.xx.fbcdn.net/hphotos-ash2/v/t1.0-9/167509_10150131097928338_3671115_n.jpg?oh=674b2907aebf05a8413a9b2cf72a9197&oe=55560D17
p1354
sg4
VOld dudes hang out around here0D17
p1355
sa(dp1356
g2
Vhttps://fbcdn-sphotos-f-a.akamaihd.net/hphotos-ak-xpf1/v/t1.0-9/180581_10150131097843338_11137_n.jpg?oh=539c7c742f800d9d173a531a32fa10ad&oe=5596BB57&__gda__=1435829022_588e84398f370c06394a5b5e7d40cbde
p1357
sg4
VNo editing or anything at all Just the rain on the glasscbde
p1358
sa(dp1359
g2
Vhttps://scontent-a.xx.fbcdn.net/hphotos-xpf1/v/t1.0-9/168109_10150131097728338_7032937_n.jpg?oh=106173dcac474eccb72ad4de0c4db706&oe=5556932E
p1360
sg4
V168109_10150131097728338_7032937_n.jpg?oh=106173dcac474eccb72ad4de0c4db706&oe=5556932E
p1361
sa(dp1362
g2
Vhttps://scontent-a.xx.fbcdn.net/hphotos-xap1/v/t1.0-9/168653_10150131097618338_7678539_n.jpg?oh=e89be4c534f735ab7050b63c2577c9ca&oe=5565B149
p1363
sg4
VThis is where I learn tabla )B149
p1364
sa(dp1365
g2
Vhttps://scontent-a.xx.fbcdn.net/hphotos-ash2/v/t1.0-9/167661_10150131097483338_3633084_n.jpg?oh=edb512545369d4cef2c993e666d8bba0&oe=559713B7
p1366
sg4
V167661_10150131097483338_3633084_n.jpg?oh=edb512545369d4cef2c993e666d8bba0&oe=559713B7
p1367
sa(dp1368
g2
Vhttps://fbcdn-sphotos-b-a.akamaihd.net/hphotos-ak-xpa1/v/t1.0-9/167809_10150131097323338_3763028_n.jpg?oh=de821dc11818cbedbc886ab674a628d1&oe=5557F5DA&__gda__=1435848758_2b92a33c3b5e902b679fa0feef8e65c1
p1369
sg4
V167809_10150131097323338_3763028_n.jpg?oh=de821dc11818cbedbc886ab674a628d1&oe=5557F5DA&__gda__=1435848758_2b92a33c3b5e902b679fa0feef8e65c1
p1370
sa(dp1371
g2
Vhttps://scontent-a.xx.fbcdn.net/hphotos-prn2/v/t1.0-9/167512_10150130850173338_7935216_n.jpg?oh=da530ec636411faaaa33ac66ec7e3676&oe=55583B95
p1372
sg4
VHAPPY CHINESE NEW YEAR See that red packet Its stuffed with money Get it if you want )3B95
p1373
sa(dp1374
g2
Vhttps://fbcdn-sphotos-d-a.akamaihd.net/hphotos-ak-xfa1/v/t1.0-9/180237_10150130819278338_3674045_n.jpg?oh=5b410cc7d4a047fe7072655a5529bd3f&oe=5565AFC2&__gda__=1430882172_5e685585261a42d629fdda7cda57a922
p1375
sg4
V180237_10150130819278338_3674045_n.jpg?oh=5b410cc7d4a047fe7072655a5529bd3f&oe=5565AFC2&__gda__=1430882172_5e685585261a42d629fdda7cda57a922
p1376
sa(dp1377
g2
Vhttps://scontent-b.xx.fbcdn.net/hphotos-xpa1/v/t1.0-9/168459_10150130819173338_5599888_n.jpg?oh=862072adbffa1e2a74e503e6107464e1&oe=5596C6CE
p1378
sg4
V168459_10150130819173338_5599888_n.jpg?oh=862072adbffa1e2a74e503e6107464e1&oe=5596C6CE
p1379
sa(dp1380
g2
Vhttps://fbcdn-sphotos-c-a.akamaihd.net/hphotos-ak-xaf1/v/t1.0-9/179267_10150130818978338_1934409_n.jpg?oh=2af83e27e68853309e7417d24c82ad4f&oe=5551D2EA&__gda__=1430828859_7eb6c19538f8a4e8a69310579e28c6cf
p1381
sg4
VMy birthday giftc6cf
p1382
sa(dp1383
g2
Vhttps://scontent-b.xx.fbcdn.net/hphotos-xfa1/v/t1.0-9/180893_10150130818853338_1518081_n.jpg?oh=db7373b4c7bf5c2e994eec8f8853f546&oe=554F9952
p1384
sg4
V180893_10150130818853338_1518081_n.jpg?oh=db7373b4c7bf5c2e994eec8f8853f546&oe=554F9952
p1385
sa(dp1386
g2
Vhttps://fbcdn-sphotos-d-a.akamaihd.net/hphotos-ak-xfa1/v/t1.0-9/180321_10150130818733338_3437462_n.jpg?oh=7906af3ecf931b39fcadbc84e0ee695d&oe=555BEDFA&__gda__=1431476036_9beeb979504a525f67ff6d8265f4f6bb
p1387
sg4
V180321_10150130818733338_3437462_n.jpg?oh=7906af3ecf931b39fcadbc84e0ee695d&oe=555BEDFA&__gda__=1431476036_9beeb979504a525f67ff6d8265f4f6bb
p1388
sa(dp1389
g2
Vhttps://fbcdn-sphotos-e-a.akamaihd.net/hphotos-ak-xaf1/v/t1.0-9/168910_10150130818508338_7291411_n.jpg?oh=e90d3ccf7d983dbb40e7ed3c47695ad8&oe=5567CD6D&__gda__=1432790716_35ea72a79f3eee8e85eec2dfdc03f921
p1390
sg4
VWas I talking Was I munching What was I doingf921
p1391
sa(dp1392
g2
Vhttps://fbcdn-sphotos-f-a.akamaihd.net/hphotos-ak-xpa1/v/t1.0-9/166666_10150130818408338_8091628_n.jpg?oh=f32bce031a71965984a06e6f8a55db81&oe=555048F3&__gda__=1431899935_2f0d802ae98573621866b08920779c87
p1393
sg4
VFather and Son looking far beyond9c87
p1394
sa(dp1395
g2
Vhttps://fbcdn-sphotos-d-a.akamaihd.net/hphotos-ak-xpf1/v/t1.0-9/180455_10150130818143338_2288893_n.jpg?oh=2b817da1800bf23816497de38fd63ced&oe=55621631&__gda__=1431030920_112b6e62557b4a97582ac501b24ae8cd
p1396
sg4
VCaught licking my teeth Pe8cd
p1397
sa(dp1398
g2
Vhttps://scontent-b.xx.fbcdn.net/hphotos-xfa1/v/t1.0-9/181459_10150130817768338_1503461_n.jpg?oh=d1f875eb28b810c34664d8b0696e38d0&oe=5561DFB7
p1399
sg4
V181459_10150130817768338_1503461_n.jpg?oh=d1f875eb28b810c34664d8b0696e38d0&oe=5561DFB7
p1400
sa(dp1401
g2
Vhttps://fbcdn-sphotos-e-a.akamaihd.net/hphotos-ak-xaf1/v/t1.0-9/181811_10150130817488338_6581511_n.jpg?oh=d024ace229d49f268492c26108945344&oe=55962837&__gda__=1431941606_1d8913475640e98467561b3fad33d8ac
p1402
sg4
V181811_10150130817488338_6581511_n.jpg?oh=d024ace229d49f268492c26108945344&oe=55962837&__gda__=1431941606_1d8913475640e98467561b3fad33d8ac
p1403
sa(dp1404
g2
Vhttps://fbcdn-sphotos-d-a.akamaihd.net/hphotos-ak-ash2/v/t1.0-9/180090_10150130817278338_6059493_n.jpg?oh=2e91b3012abfaf008038fbdc719f107c&oe=55489682&__gda__=1435672163_96738dfbbade5eebbd0f89ac0b2e4f26
p1405
sg4
V180090_10150130817278338_6059493_n.jpg?oh=2e91b3012abfaf008038fbdc719f107c&oe=55489682&__gda__=1435672163_96738dfbbade5eebbd0f89ac0b2e4f26
p1406
sa(dp1407
g2
Vhttps://fbcdn-sphotos-f-a.akamaihd.net/hphotos-ak-xpa1/v/t1.0-9/180515_10150130817158338_1357774_n.jpg?oh=745e1a9ea52384242cff36249d546de9&oe=554E8D7F&__gda__=1430902931_62a609d12fdcdaa1d5ac8325931dc03a
p1408
sg4
V180515_10150130817158338_1357774_n.jpg?oh=745e1a9ea52384242cff36249d546de9&oe=554E8D7F&__gda__=1430902931_62a609d12fdcdaa1d5ac8325931dc03a
p1409
sa(dp1410
g2
Vhttps://fbcdn-sphotos-e-a.akamaihd.net/hphotos-ak-xpa1/v/t1.0-9/168480_10150130816998338_7832290_n.jpg?oh=7e4e4391827e356818aeaefc43036cc1&oe=5548E62E&__gda__=1431673794_7cdcf6aa621a2204ebcd5793e8c9ee8a
p1411
sg4
V168480_10150130816998338_7832290_n.jpg?oh=7e4e4391827e356818aeaefc43036cc1&oe=5548E62E&__gda__=1431673794_7cdcf6aa621a2204ebcd5793e8c9ee8a
p1412
sa(dp1413
g2
Vhttps://fbcdn-sphotos-c-a.akamaihd.net/hphotos-ak-xaf1/v/t1.0-9/179380_10150130816898338_7010577_n.jpg?oh=89802fdb59a243b6b517baa5054fc932&oe=554B852E&__gda__=1432931583_0ed69063ae1c140af371d3c93ab20f46
p1414
sg4
V179380_10150130816898338_7010577_n.jpg?oh=89802fdb59a243b6b517baa5054fc932&oe=554B852E&__gda__=1432931583_0ed69063ae1c140af371d3c93ab20f46
p1415
sa(dp1416
g2
Vhttps://fbcdn-sphotos-f-a.akamaihd.net/hphotos-ak-prn2/v/t1.0-9/180089_10150130816773338_1941312_n.jpg?oh=7521c5f6452a8fa367c91df00e994074&oe=554FE044&__gda__=1430786314_a5e737bb3f635ea72e88b754f062cbf0
p1417
sg4
VBut it started to meltcbf0
p1418
sa(dp1419
g2
Vhttps://fbcdn-sphotos-b-a.akamaihd.net/hphotos-ak-xfa1/v/t1.0-9/179658_10150130816588338_4417281_n.jpg?oh=8f62ecd4d78ccdaa3b0c4763b5371a94&oe=554A19E0&__gda__=1431326558_154bcf61b4a9fc3057c635e66c0ddf06
p1420
sg4
V179658_10150130816588338_4417281_n.jpg?oh=8f62ecd4d78ccdaa3b0c4763b5371a94&oe=554A19E0&__gda__=1431326558_154bcf61b4a9fc3057c635e66c0ddf06
p1421
sa(dp1422
g2
Vhttps://fbcdn-sphotos-g-a.akamaihd.net/hphotos-ak-xap1/v/t1.0-9/180550_10150130816463338_565748_n.jpg?oh=d45dde99f212d94f05e8cce49d05c4a1&oe=554BD046&__gda__=1431258292_abf456647ba97cca2f51929a6ec56343
p1423
sg4
VTiramisu6343
p1424
sa(dp1425
g2
Vhttps://fbcdn-sphotos-a-a.akamaihd.net/hphotos-ak-xap1/v/t1.0-9/167816_10150130816128338_3220091_n.jpg?oh=6e167953ced6551a3418353e86c08f19&oe=5565CF85&__gda__=1431943853_1bf06375d5b19799e39fa1ac374a2995
p1426
sg4
VHILARIOUS2995
p1427
sa(dp1428
g2
Vhttps://scontent-b.xx.fbcdn.net/hphotos-frc3/v/t1.0-9/181754_10150130815683338_8149261_n.jpg?oh=5c38de012e51e9e378610de4347aa655&oe=556362DD
p1429
sg4
VMy birthday brownie62DD
p1430
sa(dp1431
g2
Vhttps://scontent-a.xx.fbcdn.net/hphotos-xpf1/v/l/t1.0-9/168402_10150130815568338_3427468_n.jpg?oh=9ee2b2c486f5c5e34467bf7d14c6cc53&oe=55633D63
p1432
sg4
V168402_10150130815568338_3427468_n.jpg?oh=9ee2b2c486f5c5e34467bf7d14c6cc53&oe=55633D63
p1433
sa(dp1434
g2
Vhttps://fbcdn-sphotos-c-a.akamaihd.net/hphotos-ak-xpf1/v/t1.0-9/168138_10150130815463338_5926369_n.jpg?oh=3ddb6d64bf6a9ba3226f024a2be9fb51&oe=555F477A&__gda__=1432559555_2ee690d61597a0f9b3fa36513a3348e9
p1435
sg4
V168138_10150130815463338_5926369_n.jpg?oh=3ddb6d64bf6a9ba3226f024a2be9fb51&oe=555F477A&__gda__=1432559555_2ee690d61597a0f9b3fa36513a3348e9
p1436
sa(dp1437
g2
Vhttps://scontent-b.xx.fbcdn.net/hphotos-xfa1/v/t1.0-9/180301_10150130815343338_3425823_n.jpg?oh=3edab49fc5217d435f942823168e2e32&oe=55582E70
p1438
sg4
V180301_10150130815343338_3425823_n.jpg?oh=3edab49fc5217d435f942823168e2e32&oe=55582E70
p1439
sa(dp1440
g2
Vhttps://scontent-a.xx.fbcdn.net/hphotos-xaf1/v/t1.0-9/179223_10150130815223338_1429427_n.jpg?oh=79f5af5d63f194aa345abff60c62d031&oe=554D57BF
p1441
sg4
V179223_10150130815223338_1429427_n.jpg?oh=79f5af5d63f194aa345abff60c62d031&oe=554D57BF
p1442
sa(dp1443
g2
Vhttps://scontent-a.xx.fbcdn.net/hphotos-ash2/v/t1.0-9/167509_10150130815103338_4523856_n.jpg?oh=3e6e15028d0bbb47af581da833e4a290&oe=555792AD
p1444
sg4
VMafia92AD
p1445
sa(dp1446
g2
Vhttps://scontent-b.xx.fbcdn.net/hphotos-xpa1/v/t1.0-9/179848_10150130814768338_2047610_n.jpg?oh=9bbd399f6ffa0b94eb61d49c52737854&oe=5566E4B4
p1447
sg4
VNow its so much better DE4B4
p1448
sa(dp1449
g2
Vhttps://fbcdn-sphotos-a-a.akamaihd.net/hphotos-ak-xaf1/v/t1.0-9/181805_10150130814638338_6705401_n.jpg?oh=999acf3e68d36c4d38ce451db8f40a8f&oe=555367F3&__gda__=1432505378_d123be4ebd3044a38abf9211a8e91ee0
p1450
sg4
VTo prove that I look great in them and he doesnt1ee0
p1451
sa(dp1452
g2
Vhttps://scontent-a.xx.fbcdn.net/hphotos-xaf1/v/t1.0-9/181298_10150130814518338_5582878_n.jpg?oh=7fab63f449801f7eee553adb2f7752e0&oe=554F168E
p1453
sg4
VI think therefore I am-Rene descartes168E
p1454
sa(dp1455
g2
Vhttps://scontent-a.xx.fbcdn.net/hphotos-xaf1/v/t1.0-9/180234_10150130814373338_8139496_n.jpg?oh=aa556bbcdaca8abef09c930a17f9dc2f&oe=55635FF2
p1456
sg4
V180234_10150130814373338_8139496_n.jpg?oh=aa556bbcdaca8abef09c930a17f9dc2f&oe=55635FF2
p1457
sa(dp1458
g2
Vhttps://fbcdn-sphotos-h-a.akamaihd.net/hphotos-ak-xpa1/v/t1.0-9/169038_10150130814248338_8058616_n.jpg?oh=b4bf9525927eb231087c10e9a3bbe1da&oe=5555D493&__gda__=1432987775_3c7647ce3ba5046bce3578285fb09e97
p1459
sg4
VHe is the man DAD ROCKS9e97
p1460
sa(dp1461
g2
Vhttps://scontent-b.xx.fbcdn.net/hphotos-xfa1/v/t1.0-9/181303_10150130814138338_939321_n.jpg?oh=db75822dfdad8e937844946892caf16b&oe=55649F64
p1462
sg4
VMe with my darling phone9F64
p1463
sa(dp1464
g2
Vhttps://fbcdn-sphotos-f-a.akamaihd.net/hphotos-ak-xap1/v/t1.0-9/167351_10150130814013338_6443222_n.jpg?oh=17b449c8b67a5e93f6ff45a83f323a6f&oe=55628C9A&__gda__=1431565746_6f92f462d3dc513f29d06b4ebda1134f
p1465
sg4
V167351_10150130814013338_6443222_n.jpg?oh=17b449c8b67a5e93f6ff45a83f323a6f&oe=55628C9A&__gda__=1431565746_6f92f462d3dc513f29d06b4ebda1134f
p1466
sa(dp1467
g2
Vhttps://fbcdn-sphotos-g-a.akamaihd.net/hphotos-ak-xap1/v/t1.0-9/1914175_10150130813863338_6312343_n.jpg?oh=afe3d978bb09b889212091c58b5eef5a&oe=554F1B69&__gda__=1432006122_d726f0bbdb8cd63ae6cf9f784e03470f
p1468
sg4
VHAPPY CHINESE NEW YEAR See that red packet Its stuffed with money Get it if you want )470f
p1469
sa(dp1470
g2
Vhttps://fbcdn-sphotos-h-a.akamaihd.net/hphotos-ak-xpf1/v/t1.0-9/168163_10150130813703338_6906895_n.jpg?oh=5e25976824ee8967788322e202d7c9b3&oe=55627D4D&__gda__=1432237044_b7338ed78e74f50278532ae77b2ed254
p1471
sg4
VOn the top right hand corner is my dads birthday gift to me Encyclopedia Americanad254
p1472
sa(dp1473
g2
Vhttps://scontent-b.xx.fbcdn.net/hphotos-xfa1/v/t1.0-9/165496_10150126388193338_7225602_n.jpg?oh=6223d1e38d22973cfbf6bc9a8ad9b8ad&oe=55930D21
p1474
sg4
V165496_10150126388193338_7225602_n.jpg?oh=6223d1e38d22973cfbf6bc9a8ad9b8ad&oe=55930D21
p1475
sa(dp1476
g2
Vhttps://fbcdn-sphotos-f-a.akamaihd.net/hphotos-ak-xfp1/v/t1.0-9/180554_10150126136728338_2826167_n.jpg?oh=884a2296f9be5492f7712e75c91648ad&oe=5552C48C&__gda__=1432426398_6126b99b59f710a4e7103d0603e58a09
p1477
sg4
V180554_10150126136728338_2826167_n.jpg?oh=884a2296f9be5492f7712e75c91648ad&oe=5552C48C&__gda__=1432426398_6126b99b59f710a4e7103d0603e58a09
p1478
sa(dp1479
g2
Vhttps://scontent-b.xx.fbcdn.net/hphotos-xfa1/v/t1.0-9/165350_10150126110733338_2535251_n.jpg?oh=cff1b2889891f0b3fdc1c68b541ef257&oe=5549BDCE
p1480
sg4
VClarence doing what he could do the bestBDCE
p1481
sa(dp1482
g2
Vhttps://scontent-b.xx.fbcdn.net/hphotos-xpa1/v/t1.0-9/1914873_10150126110578338_5574495_n.jpg?oh=77a8c546f21b39bb75e13ca5b4e6ca63&oe=555FCC52
p1483
sg4
VSarah OWNING Issac at DDRCC52
p1484
sa(dp1485
g2
Vhttps://scontent-a.xx.fbcdn.net/hphotos-xaf1/v/t1.0-9/180313_10150126110393338_3593038_n.jpg?oh=5b684aae1163bc540374417273202692&oe=55942B06
p1486
sg4
V180313_10150126110393338_3593038_n.jpg?oh=5b684aae1163bc540374417273202692&oe=55942B06
p1487
sa(dp1488
g2
Vhttps://fbcdn-sphotos-f-a.akamaihd.net/hphotos-ak-xfa1/v/t1.0-9/163799_10150126110188338_8200816_n.jpg?oh=18cc6483a2b04de3ed05cde5feafead9&oe=55646502&__gda__=1431452604_fbac92e9e13e467e5337c589fefc4079
p1489
sg4
V163799_10150126110188338_8200816_n.jpg?oh=18cc6483a2b04de3ed05cde5feafead9&oe=55646502&__gda__=1431452604_fbac92e9e13e467e5337c589fefc4079
p1490
sa(dp1491
g2
Vhttps://scontent-a.xx.fbcdn.net/hphotos-xaf1/v/t1.0-9/180333_10150126110038338_1086897_n.jpg?oh=060ad1d78d8294d404696c9f2782306a&oe=55636B5C
p1492
sg4
V180333_10150126110038338_1086897_n.jpg?oh=060ad1d78d8294d404696c9f2782306a&oe=55636B5C
p1493
sa(dp1494
g2
Vhttps://fbcdn-sphotos-a-a.akamaihd.net/hphotos-ak-xfp1/v/t1.0-9/166846_10150126109953338_6623325_n.jpg?oh=ed17ea48e1468e76808e011313830f18&oe=5568B7C4&__gda__=1431925974_a44bc5fd632638ccdadb16e211c3ff28
p1495
sg4
V166846_10150126109953338_6623325_n.jpg?oh=ed17ea48e1468e76808e011313830f18&oe=5568B7C4&__gda__=1431925974_a44bc5fd632638ccdadb16e211c3ff28
p1496
sa(dp1497
g2
Vhttps://scontent-a.xx.fbcdn.net/hphotos-xaf1/v/t1.0-9/165190_10150126109853338_326843_n.jpg?oh=7aca036d45d1320a37e7bd5c879b73fa&oe=55691F5E
p1498
sg4
V165190_10150126109853338_326843_n.jpg?oh=7aca036d45d1320a37e7bd5c879b73fa&oe=55691F5E
p1499
sa(dp1500
g2
Vhttps://fbcdn-sphotos-f-a.akamaihd.net/hphotos-ak-xpa1/v/t1.0-9/168488_10150126109748338_8211418_n.jpg?oh=9cc5690c8a4d493ede77dd1936e0668c&oe=555A4723&__gda__=1431439823_0cf7d88a8d50f6ed0bc2f917f6f9cf13
p1501
sg4
V168488_10150126109748338_8211418_n.jpg?oh=9cc5690c8a4d493ede77dd1936e0668c&oe=555A4723&__gda__=1431439823_0cf7d88a8d50f6ed0bc2f917f6f9cf13
p1502
sa(dp1503
g2
Vhttps://fbcdn-sphotos-b-a.akamaihd.net/hphotos-ak-xpa1/v/t1.0-9/168408_10150126109563338_3274789_n.jpg?oh=8471661fe2c1ad0fa62c6677a11221c6&oe=55960E3F&__gda__=1432312531_cc3908e6797ca0c3142ab8b27e64decf
p1504
sg4
V168408_10150126109563338_3274789_n.jpg?oh=8471661fe2c1ad0fa62c6677a11221c6&oe=55960E3F&__gda__=1432312531_cc3908e6797ca0c3142ab8b27e64decf
p1505
sa(dp1506
g2
Vhttps://fbcdn-sphotos-h-a.akamaihd.net/hphotos-ak-xpa1/v/t1.0-9/180686_10150126109448338_6720688_n.jpg?oh=85efcd9e2a0e08bcd291da475b528727&oe=55670B69&__gda__=1435942533_741a1f67a7fcb4fa192f144bd2138021
p1507
sg4
V180686_10150126109448338_6720688_n.jpg?oh=85efcd9e2a0e08bcd291da475b528727&oe=55670B69&__gda__=1435942533_741a1f67a7fcb4fa192f144bd2138021
p1508
sa(dp1509
g2
Vhttps://scontent-a.xx.fbcdn.net/hphotos-xaf1/v/t1.0-9/179367_10150126109293338_7171913_n.jpg?oh=393ac6bd5911979a7217f7e953c4e387&oe=55965232
p1510
sg4
VThis is what happens RIGHT AFTER the photo P5232
p1511
sa(dp1512
g2
Vhttps://fbcdn-sphotos-c-a.akamaihd.net/hphotos-ak-xaf1/v/t1.0-9/180329_10150126109148338_197661_n.jpg?oh=3c5dec17f6f2abef89a46493d8cf487e&oe=554B61BD&__gda__=1430934490_87cdb3fe432902a4b3cc8b1936dc191f
p1513
sg4
V180329_10150126109148338_197661_n.jpg?oh=3c5dec17f6f2abef89a46493d8cf487e&oe=554B61BD&__gda__=1430934490_87cdb3fe432902a4b3cc8b1936dc191f
p1514
sa(dp1515
g2
Vhttps://fbcdn-sphotos-d-a.akamaihd.net/hphotos-ak-xpa1/v/t1.0-9/1914837_10150126108978338_7937637_n.jpg?oh=972de14400c9cefe9cf83077f27e6a48&oe=555E0137&__gda__=1432479044_84464c9d306f2c3985a8701c6cf41603
p1516
sg4
V1914837_10150126108978338_7937637_n.jpg?oh=972de14400c9cefe9cf83077f27e6a48&oe=555E0137&__gda__=1432479044_84464c9d306f2c3985a8701c6cf41603
p1517
sa(dp1518
g2
Vhttps://fbcdn-sphotos-f-a.akamaihd.net/hphotos-ak-xpa1/v/t1.0-9/166796_10150126108908338_4181876_n.jpg?oh=ff45eb0a51cf3ee2e802a12c44b61b5f&oe=55559A76&__gda__=1431905690_163cf5b8b99b46b1eea1efda86b97dfe
p1519
sg4
V166796_10150126108908338_4181876_n.jpg?oh=ff45eb0a51cf3ee2e802a12c44b61b5f&oe=55559A76&__gda__=1431905690_163cf5b8b99b46b1eea1efda86b97dfe
p1520
sa(dp1521
g2
Vhttps://fbcdn-sphotos-b-a.akamaihd.net/hphotos-ak-xfa1/v/t1.0-9/180287_10150126108813338_5730316_n.jpg?oh=22538053a6c46af602eb18ef44cc6bee&oe=55949AAE&__gda__=1431995408_d03de60461d31c13f92a1909c5b8d13b
p1522
sg4
V180287_10150126108813338_5730316_n.jpg?oh=22538053a6c46af602eb18ef44cc6bee&oe=55949AAE&__gda__=1431995408_d03de60461d31c13f92a1909c5b8d13b
p1523
sa(dp1524
g2
Vhttps://fbcdn-sphotos-e-a.akamaihd.net/hphotos-ak-xpf1/v/t1.0-9/179841_10150126108763338_6876046_n.jpg?oh=1ab272a3c9b20f2ee2a7ecb832ba7f3b&oe=554F4CD2&__gda__=1431908715_16eba3e78baff4dbdb7388ff0cf2c0da
p1525
sg4
V179841_10150126108763338_6876046_n.jpg?oh=1ab272a3c9b20f2ee2a7ecb832ba7f3b&oe=554F4CD2&__gda__=1431908715_16eba3e78baff4dbdb7388ff0cf2c0da
p1526
sa(dp1527
g2
Vhttps://fbcdn-sphotos-g-a.akamaihd.net/hphotos-ak-xaf1/v/t1.0-9/165097_10150126108648338_7149355_n.jpg?oh=cda87b5ff947c293c5518f50b75946e5&oe=5549EAC3&__gda__=1432459026_5ed2e538e24b53dca41d854c7f1e587a
p1528
sg4
V165097_10150126108648338_7149355_n.jpg?oh=cda87b5ff947c293c5518f50b75946e5&oe=5549EAC3&__gda__=1432459026_5ed2e538e24b53dca41d854c7f1e587a
p1529
sa(dp1530
g2
Vhttps://fbcdn-sphotos-f-a.akamaihd.net/hphotos-ak-xpa1/v/t1.0-9/168490_10150126108568338_689822_n.jpg?oh=023f6c4a60123573aa4134092f8dceba&oe=559354F4&__gda__=1431975620_a560755571006fbe137d49919d511e39
p1531
sg4
V168490_10150126108568338_689822_n.jpg?oh=023f6c4a60123573aa4134092f8dceba&oe=559354F4&__gda__=1431975620_a560755571006fbe137d49919d511e39
p1532
sa(dp1533
g2
Vhttps://fbcdn-sphotos-d-a.akamaihd.net/hphotos-ak-xpa1/v/t1.0-9/167025_10150126108443338_7387918_n.jpg?oh=ddbb3e3e577b96e423fe860486d32437&oe=55694448&__gda__=1431994020_78842bfddb9fda764324dff833124e02
p1534
sg4
V167025_10150126108443338_7387918_n.jpg?oh=ddbb3e3e577b96e423fe860486d32437&oe=55694448&__gda__=1431994020_78842bfddb9fda764324dff833124e02
p1535
sa(dp1536
g2
Vhttps://fbcdn-sphotos-e-a.akamaihd.net/hphotos-ak-xaf1/v/t1.0-9/166489_10150126108353338_7497911_n.jpg?oh=be407ea9fe7fe1abcff145b1b20bae00&oe=555AE3A0&__gda__=1435793009_2e149cdf8a44617e4673d9405dfc0abd
p1537
sg4
V166489_10150126108353338_7497911_n.jpg?oh=be407ea9fe7fe1abcff145b1b20bae00&oe=555AE3A0&__gda__=1435793009_2e149cdf8a44617e4673d9405dfc0abd
p1538
sa(dp1539
g2
Vhttps://fbcdn-sphotos-a-a.akamaihd.net/hphotos-ak-xaf1/v/t1.0-9/168592_10150126108223338_3381364_n.jpg?oh=e37553d6c0126a04920b5b80fd9bb535&oe=5552FDF3&__gda__=1432636706_fa598c1b0940a9390c1190105d3e3eba
p1540
sg4
V168592_10150126108223338_3381364_n.jpg?oh=e37553d6c0126a04920b5b80fd9bb535&oe=5552FDF3&__gda__=1432636706_fa598c1b0940a9390c1190105d3e3eba
p1541
sa(dp1542
g2
Vhttps://scontent-b.xx.fbcdn.net/hphotos-xpf1/v/t1.0-9/180790_10150126108093338_2622056_n.jpg?oh=18711fd3eb703bbc0e3285356c00addb&oe=556871E9
p1543
sg4
V180790_10150126108093338_2622056_n.jpg?oh=18711fd3eb703bbc0e3285356c00addb&oe=556871E9
p1544
sa(dp1545
g2
Vhttps://fbcdn-sphotos-f-a.akamaihd.net/hphotos-ak-xfa1/v/t1.0-9/164760_10150126107998338_1373925_n.jpg?oh=95753dd07a7aaa76a4360cd7e4e8d4a8&oe=5550397A&__gda__=1432587460_aee7d8fe19b97a13c283b7916468e2fc
p1546
sg4
V164760_10150126107998338_1373925_n.jpg?oh=95753dd07a7aaa76a4360cd7e4e8d4a8&oe=5550397A&__gda__=1432587460_aee7d8fe19b97a13c283b7916468e2fc
p1547
sa(dp1548
g2
Vhttps://scontent-a.xx.fbcdn.net/hphotos-xap1/v/t1.0-9/167068_10150126107888338_3976754_n.jpg?oh=63cdef7ec3d6c533531e57df81100aef&oe=555F2FA9
p1549
sg4
V167068_10150126107888338_3976754_n.jpg?oh=63cdef7ec3d6c533531e57df81100aef&oe=555F2FA9
p1550
sa(dp1551
g2
Vhttps://fbcdn-sphotos-d-a.akamaihd.net/hphotos-ak-xfa1/v/t1.0-9/180892_10150126107708338_6054871_n.jpg?oh=a8814e5c3c04033c1c51727a442f7a5b&oe=5557A0E6&__gda__=1431003224_021d150a1b34cc3aa1c58ed0e80ae644
p1552
sg4
V180892_10150126107708338_6054871_n.jpg?oh=a8814e5c3c04033c1c51727a442f7a5b&oe=5557A0E6&__gda__=1431003224_021d150a1b34cc3aa1c58ed0e80ae644
p1553
sa(dp1554
g2
Vhttps://fbcdn-sphotos-e-a.akamaihd.net/hphotos-ak-xaf1/v/t1.0-9/168785_10150126107578338_681671_n.jpg?oh=867b5cd849ee33e173fd9fef8a63a10e&oe=55664B82&__gda__=1432461797_32e378aeae2a5d5129c867483f4bf296
p1555
sg4
V168785_10150126107578338_681671_n.jpg?oh=867b5cd849ee33e173fd9fef8a63a10e&oe=55664B82&__gda__=1432461797_32e378aeae2a5d5129c867483f4bf296
p1556
sa(dp1557
g2
Vhttps://scontent-a.xx.fbcdn.net/hphotos-xap1/v/t1.0-9/168048_10150126107448338_1089861_n.jpg?oh=1a7cdc71e6e2546f0fe2071a22e3038c&oe=5560670A
p1558
sg4
V168048_10150126107448338_1089861_n.jpg?oh=1a7cdc71e6e2546f0fe2071a22e3038c&oe=5560670A
p1559
sa(dp1560
g2
Vhttps://scontent-b.xx.fbcdn.net/hphotos-xpa1/v/t1.0-9/165632_10150126107303338_3915951_n.jpg?oh=6af3df86862d80b59920e81ec6158897&oe=555B0D86
p1561
sg4
V165632_10150126107303338_3915951_n.jpg?oh=6af3df86862d80b59920e81ec6158897&oe=555B0D86
p1562
sa(dp1563
g2
Vhttps://fbcdn-sphotos-d-a.akamaihd.net/hphotos-ak-xfa1/v/t1.0-9/179441_10150126107208338_426820_n.jpg?oh=0e99101a068e17a45cc47a3741b88db1&oe=5562F1B5&__gda__=1432316028_467462a0927c04a06b3bf046ea1f3fe3
p1564
sg4
V179441_10150126107208338_426820_n.jpg?oh=0e99101a068e17a45cc47a3741b88db1&oe=5562F1B5&__gda__=1432316028_467462a0927c04a06b3bf046ea1f3fe3
p1565
sa(dp1566
g2
Vhttps://scontent-b.xx.fbcdn.net/hphotos-xfa1/v/t1.0-9/168979_10150126107073338_8373796_n.jpg?oh=e82f18fd1d103885b1f31be450f92c8d&oe=554DE114
p1567
sg4
V168979_10150126107073338_8373796_n.jpg?oh=e82f18fd1d103885b1f31be450f92c8d&oe=554DE114
p1568
sa(dp1569
g2
Vhttps://scontent-b.xx.fbcdn.net/hphotos-xfp1/v/t1.0-9/168607_10150126106993338_13657_n.jpg?oh=829b32f88029ec1a36d548ab8997cd68&oe=554EFE51
p1570
sg4
V168607_10150126106993338_13657_n.jpg?oh=829b32f88029ec1a36d548ab8997cd68&oe=554EFE51
p1571
sa(dp1572
g2
Vhttps://fbcdn-sphotos-e-a.akamaihd.net/hphotos-ak-xaf1/v/t1.0-9/165775_10150126106873338_1934494_n.jpg?oh=b362fab50700922b24a27b3db64a95bd&oe=5593EFE9&__gda__=1430804280_b2dc6f4606243ccfef80d2c6dc4399d1
p1573
sg4
V165775_10150126106873338_1934494_n.jpg?oh=b362fab50700922b24a27b3db64a95bd&oe=5593EFE9&__gda__=1430804280_b2dc6f4606243ccfef80d2c6dc4399d1
p1574
sa(dp1575
g2
Vhttps://fbcdn-sphotos-a-a.akamaihd.net/hphotos-ak-xaf1/v/t1.0-9/166299_10150126106728338_6633627_n.jpg?oh=9ad6d5f6d5a751251627297fd9a45b0b&oe=555DEFC5&__gda__=1430880020_edecd56e78f0d0cfb3bd25280cb637ac
p1576
sg4
V166299_10150126106728338_6633627_n.jpg?oh=9ad6d5f6d5a751251627297fd9a45b0b&oe=555DEFC5&__gda__=1430880020_edecd56e78f0d0cfb3bd25280cb637ac
p1577
sa(dp1578
g2
Vhttps://fbcdn-sphotos-h-a.akamaihd.net/hphotos-ak-xfa1/v/t1.0-9/179488_10150126106628338_2458926_n.jpg?oh=356d306ca7fbe2634bc7ee27a022e261&oe=55569AB5&__gda__=1431256331_62060dc173b4df0a9acfa7dc4da7e33c
p1579
sg4
V179488_10150126106628338_2458926_n.jpg?oh=356d306ca7fbe2634bc7ee27a022e261&oe=55569AB5&__gda__=1431256331_62060dc173b4df0a9acfa7dc4da7e33c
p1580
sa(dp1581
g2
Vhttps://scontent-b.xx.fbcdn.net/hphotos-prn2/v/t1.0-9/167590_10150126106538338_6377483_n.jpg?oh=b22cd491b292bba25eb3f0fb850c6976&oe=559452A0
p1582
sg4
V167590_10150126106538338_6377483_n.jpg?oh=b22cd491b292bba25eb3f0fb850c6976&oe=559452A0
p1583
sa(dp1584
g2
Vhttps://scontent-b.xx.fbcdn.net/hphotos-xfa1/v/t1.0-9/166473_10150126106448338_3793149_n.jpg?oh=25f2a1ffe3e7098598ad88a20d013428&oe=555202FE
p1585
sg4
V166473_10150126106448338_3793149_n.jpg?oh=25f2a1ffe3e7098598ad88a20d013428&oe=555202FE
p1586
sa(dp1587
g2
Vhttps://scontent-a.xx.fbcdn.net/hphotos-xap1/v/t1.0-9/167128_10150126106388338_6306828_n.jpg?oh=212fcc0b8a3160c3b590273793d4d21d&oe=5566E712
p1588
sg4
V167128_10150126106388338_6306828_n.jpg?oh=212fcc0b8a3160c3b590273793d4d21d&oe=5566E712
p1589
sa(dp1590
g2
Vhttps://fbcdn-sphotos-e-a.akamaihd.net/hphotos-ak-xaf1/v/t1.0-9/163724_10150126106323338_7522969_n.jpg?oh=34d37f6ee53b956948ebb524f5ef0d29&oe=5554F72A&__gda__=1432831739_b4c78565f917d9510a51fd6a1a0c59ab
p1591
sg4
VTechnology will be the end of us -Nydia Hartono59ab
p1592
sa(dp1593
g2
Vhttps://scontent-b.xx.fbcdn.net/hphotos-xpa1/v/t1.0-9/166633_10150126106208338_6594150_n.jpg?oh=badcd42d493a53d63e2fb10ca0c12e11&oe=5559BB78
p1594
sg4
V166633_10150126106208338_6594150_n.jpg?oh=badcd42d493a53d63e2fb10ca0c12e11&oe=5559BB78
p1595
sa(dp1596
g2
Vhttps://scontent-b.xx.fbcdn.net/hphotos-xfa1/v/t1.0-9/165350_10150126106128338_3599884_n.jpg?oh=df5ed8c8d8631b0612f07aff5343893f&oe=554C634C
p1597
sg4
V165350_10150126106128338_3599884_n.jpg?oh=df5ed8c8d8631b0612f07aff5343893f&oe=554C634C
p1598
sa(dp1599
g2
Vhttps://fbcdn-sphotos-e-a.akamaihd.net/hphotos-ak-xpa1/v/t1.0-9/168489_10150126105943338_1132080_n.jpg?oh=f43bd029cfde3a3e62c0f271b4f284be&oe=5550BB8E&__gda__=1435900258_5a174b36ef6dd0b4912a89b20fd52b83
p1600
sg4
V168489_10150126105943338_1132080_n.jpg?oh=f43bd029cfde3a3e62c0f271b4f284be&oe=5550BB8E&__gda__=1435900258_5a174b36ef6dd0b4912a89b20fd52b83
p1601
sa(dp1602
g2
Vhttps://scontent-a.xx.fbcdn.net/hphotos-xaf1/v/t1.0-9/165348_10150126105808338_6370384_n.jpg?oh=eb8a98b285e52954bdf549e199a7fcef&oe=5569E3A7
p1603
sg4
V165348_10150126105808338_6370384_n.jpg?oh=eb8a98b285e52954bdf549e199a7fcef&oe=5569E3A7
p1604
sa(dp1605
g2
Vhttps://fbcdn-sphotos-f-a.akamaihd.net/hphotos-ak-xfa1/v/t1.0-9/163851_10150126105608338_3951610_n.jpg?oh=8a6f7359be69c3262763c2acd8e755c0&oe=5556CEC6&__gda__=1432295288_3af9a824059dd9797b588167b53de02b
p1606
sg4
V163851_10150126105608338_3951610_n.jpg?oh=8a6f7359be69c3262763c2acd8e755c0&oe=5556CEC6&__gda__=1432295288_3af9a824059dd9797b588167b53de02b
p1607
sa(dp1608
g2
Vhttps://scontent-b.xx.fbcdn.net/hphotos-xpa1/v/t1.0-9/180689_10150126105228338_2434384_n.jpg?oh=32e05dc9f123455de828f70b1d695fed&oe=5595FA85
p1609
sg4
V180689_10150126105228338_2434384_n.jpg?oh=32e05dc9f123455de828f70b1d695fed&oe=5595FA85
p1610
sa(dp1611
g2
Vhttps://scontent-b.xx.fbcdn.net/hphotos-xfa1/v/t1.0-9/168777_10150126105123338_4712768_n.jpg?oh=81a07cba367e7472f24ab34c07bb78cf&oe=55675B18
p1612
sg4
V168777_10150126105123338_4712768_n.jpg?oh=81a07cba367e7472f24ab34c07bb78cf&oe=55675B18
p1613
sa(dp1614
g2
Vhttps://fbcdn-sphotos-h-a.akamaihd.net/hphotos-ak-xpa1/v/t1.0-9/179822_10150126105033338_119584_n.jpg?oh=a50c757508d9cea696fd6cd58a0edebc&oe=5595C11C&__gda__=1432171820_babb23f52bc4cc9e85fb1c1ac6c18e70
p1615
sg4
V179822_10150126105033338_119584_n.jpg?oh=a50c757508d9cea696fd6cd58a0edebc&oe=5595C11C&__gda__=1432171820_babb23f52bc4cc9e85fb1c1ac6c18e70
p1616
sa(dp1617
g2
Vhttps://scontent-b.xx.fbcdn.net/hphotos-xpa1/v/t1.0-9/167727_10150126104528338_4599664_n.jpg?oh=d99d6c1287f5b7f9d59894f75229e808&oe=555FB402
p1618
sg4
V167727_10150126104528338_4599664_n.jpg?oh=d99d6c1287f5b7f9d59894f75229e808&oe=555FB402
p1619
sa(dp1620
g2
Vhttps://fbcdn-sphotos-f-a.akamaihd.net/hphotos-ak-xfa1/v/t1.0-9/165338_10150126104063338_8297933_n.jpg?oh=b29bf219d99e20c32b684047b75d9e67&oe=5551D292&__gda__=1432902956_3c07b618edb7d74c9ba7698b78ea55bf
p1621
sg4
VROCK AND ROLL oh wait its roll and rock P55bf
p1622
sa(dp1623
g2
Vhttps://scontent-a.xx.fbcdn.net/hphotos-xap1/v/t1.0-9/165625_10150126103898338_4099243_n.jpg?oh=0e1800fc4a0417d57642700bf4564473&oe=554F7271
p1624
sg4
V165625_10150126103898338_4099243_n.jpg?oh=0e1800fc4a0417d57642700bf4564473&oe=554F7271
p1625
sa(dp1626
g2
Vhttps://fbcdn-sphotos-a-a.akamaihd.net/hphotos-ak-ash2/v/t1.0-9/166459_10150126103733338_3391309_n.jpg?oh=a22dbca7969911ed787a835aa9b8a99e&oe=5555D159&__gda__=1431447224_9775e4d3e118c38813e4fdff364873f2
p1627
sg4
V166459_10150126103733338_3391309_n.jpg?oh=a22dbca7969911ed787a835aa9b8a99e&oe=5555D159&__gda__=1431447224_9775e4d3e118c38813e4fdff364873f2
p1628
sa(dp1629
g2
Vhttps://fbcdn-sphotos-e-a.akamaihd.net/hphotos-ak-frc3/v/t1.0-9/180702_10150126103553338_2425201_n.jpg?oh=2228093cacb20182cd4004ea00d8bfec&oe=556333AF&__gda__=1435692528_778986184a4a104a1ed18b64d991b74c
p1630
sg4
V180702_10150126103553338_2425201_n.jpg?oh=2228093cacb20182cd4004ea00d8bfec&oe=556333AF&__gda__=1435692528_778986184a4a104a1ed18b64d991b74c
p1631
sa(dp1632
g2
Vhttps://fbcdn-sphotos-b-a.akamaihd.net/hphotos-ak-xfp1/v/t1.0-9/168073_10150126103403338_4799270_n.jpg?oh=1988544b38ef6bb8e318d39f19dda661&oe=555EF543&__gda__=1432775505_2fc05fd493d43106d842684e5b3d7ab0
p1633
sg4
V168073_10150126103403338_4799270_n.jpg?oh=1988544b38ef6bb8e318d39f19dda661&oe=555EF543&__gda__=1432775505_2fc05fd493d43106d842684e5b3d7ab0
p1634
sa(dp1635
g2
Vhttps://scontent-b.xx.fbcdn.net/hphotos-xfa1/v/t1.0-9/165182_10150126103258338_7620980_n.jpg?oh=002ad94afbc4fa6f730788a089149684&oe=55559B78
p1636
sg4
V165182_10150126103258338_7620980_n.jpg?oh=002ad94afbc4fa6f730788a089149684&oe=55559B78
p1637
sa(dp1638
g2
Vhttps://fbcdn-sphotos-g-a.akamaihd.net/hphotos-ak-xap1/v/t1.0-9/180462_10150126103138338_3654697_n.jpg?oh=c17011061086a28c43a46b26bd12bbeb&oe=5560959C&__gda__=1431782068_00c7c1888bf45b64415bce60bfb976ef
p1639
sg4
V180462_10150126103138338_3654697_n.jpg?oh=c17011061086a28c43a46b26bd12bbeb&oe=5560959C&__gda__=1431782068_00c7c1888bf45b64415bce60bfb976ef
p1640
sa(dp1641
g2
Vhttps://scontent-a.xx.fbcdn.net/hphotos-xap1/v/t1.0-9/166804_10150126103003338_6725472_n.jpg?oh=dcf0338f194576e6b07d63b8244b3302&oe=5568F4B4
p1642
sg4
V166804_10150126103003338_6725472_n.jpg?oh=dcf0338f194576e6b07d63b8244b3302&oe=5568F4B4
p1643
sa(dp1644
g2
Vhttps://fbcdn-sphotos-e-a.akamaihd.net/hphotos-ak-xap1/v/t1.0-9/166598_10150126102903338_4252484_n.jpg?oh=75baf492c754d174a0151e09a4ffcf71&oe=5554FD54&__gda__=1431196284_c1e7a3b242815db95fb2900a5ef81810
p1645
sg4
V166598_10150126102903338_4252484_n.jpg?oh=75baf492c754d174a0151e09a4ffcf71&oe=5554FD54&__gda__=1431196284_c1e7a3b242815db95fb2900a5ef81810
p1646
sa(dp1647
g2
Vhttps://fbcdn-sphotos-d-a.akamaihd.net/hphotos-ak-xfa1/v/t1.0-9/163767_10150126102773338_4361667_n.jpg?oh=3cb19e66b5e1b5329155ae956903c391&oe=5595F29C&__gda__=1432161058_f78cf5268298ec23c0eb605345445453
p1648
sg4
V163767_10150126102773338_4361667_n.jpg?oh=3cb19e66b5e1b5329155ae956903c391&oe=5595F29C&__gda__=1432161058_f78cf5268298ec23c0eb605345445453
p1649
sa(dp1650
g2
Vhttps://fbcdn-sphotos-d-a.akamaihd.net/hphotos-ak-xpa1/v/t1.0-9/168188_10150126102623338_7436272_n.jpg?oh=1ecf0d8141e496169456d53aef49e834&oe=5555FEC9&__gda__=1431013925_264d448c76ab11eecc601887c4c9af68
p1651
sg4
VDid I just upload this NO WAYaf68
p1652
sa(dp1653
g2
Vhttps://fbcdn-sphotos-e-a.akamaihd.net/hphotos-ak-xaf1/v/t1.0-9/180847_10150126102483338_1802149_n.jpg?oh=7f474b5ddc7e5194f7ce34e2d9decad6&oe=555975BE&__gda__=1435816815_c01de23655894f9ca9dc5d5208db25d2
p1654
sg4
V180847_10150126102483338_1802149_n.jpg?oh=7f474b5ddc7e5194f7ce34e2d9decad6&oe=555975BE&__gda__=1435816815_c01de23655894f9ca9dc5d5208db25d2
p1655
sa(dp1656
g2
Vhttps://fbcdn-sphotos-b-a.akamaihd.net/hphotos-ak-xpa1/v/t1.0-9/167131_10150126102203338_446345_n.jpg?oh=6366ae00a82b3b5bd70e80b2edc991b7&oe=5596B9DA&__gda__=1431941354_ba044d4befb651f17f42e7306f7eacfd
p1657
sg4
V167131_10150126102203338_446345_n.jpg?oh=6366ae00a82b3b5bd70e80b2edc991b7&oe=5596B9DA&__gda__=1431941354_ba044d4befb651f17f42e7306f7eacfd
p1658
sa(dp1659
g2
Vhttps://fbcdn-sphotos-a-a.akamaihd.net/hphotos-ak-xaf1/v/t1.0-9/165130_10150126102103338_340853_n.jpg?oh=be60c2987c8bff6d1947fd3fb4748c76&oe=555A8BB9&__gda__=1433020894_ea44f3bd24bf6940e0d80cb0f01ea82e
p1660
sg4
V165130_10150126102103338_340853_n.jpg?oh=be60c2987c8bff6d1947fd3fb4748c76&oe=555A8BB9&__gda__=1433020894_ea44f3bd24bf6940e0d80cb0f01ea82e
p1661
sa(dp1662
g2
Vhttps://fbcdn-sphotos-g-a.akamaihd.net/hphotos-ak-xaf1/v/t1.0-9/164508_10150126102038338_8096512_n.jpg?oh=a30a58eaa87a195ee35edb513200e96e&oe=554E2F40&__gda__=1432712849_d810841ce91c6137b65a3ae589910c90
p1663
sg4
V164508_10150126102038338_8096512_n.jpg?oh=a30a58eaa87a195ee35edb513200e96e&oe=554E2F40&__gda__=1432712849_d810841ce91c6137b65a3ae589910c90
p1664
sa(dp1665
g2
Vhttps://fbcdn-sphotos-e-a.akamaihd.net/hphotos-ak-ash2/v/t1.0-9/167263_10150126101933338_5249374_n.jpg?oh=d4e1dd3496ad908dbe384ec53d432ab3&oe=5596B058&__gda__=1431596473_a964f1ed5bd96cecac7d9700e083468f
p1666
sg4
VTALK TO THE HAND468f
p1667
sa(dp1668
g2
Vhttps://fbcdn-sphotos-c-a.akamaihd.net/hphotos-ak-xap1/v/t1.0-9/168669_10150126101848338_2539692_n.jpg?oh=8e27e705c7ad77f4e3e7a391236af519&oe=555F63F2&__gda__=1432927962_7e5a9dc6b9d5467c62875aa071b7ddec
p1669
sg4
V168669_10150126101848338_2539692_n.jpg?oh=8e27e705c7ad77f4e3e7a391236af519&oe=555F63F2&__gda__=1432927962_7e5a9dc6b9d5467c62875aa071b7ddec
p1670
sa(dp1671
g2
Vhttps://scontent-b.xx.fbcdn.net/hphotos-xpf1/v/t1.0-9/168067_10150126101548338_7793476_n.jpg?oh=c75e45b3e2e02ae5c1aebf94c86016ad&oe=554F9AB9
p1672
sg4
V168067_10150126101548338_7793476_n.jpg?oh=c75e45b3e2e02ae5c1aebf94c86016ad&oe=554F9AB9
p1673
sa(dp1674
g2
Vhttps://scontent-a.xx.fbcdn.net/hphotos-xap1/v/t1.0-9/166818_10150126101333338_5036212_n.jpg?oh=c979c83e001715d850f779b746031e38&oe=55542B06
p1675
sg4
V166818_10150126101333338_5036212_n.jpg?oh=c979c83e001715d850f779b746031e38&oe=55542B06
p1676
sa(dp1677
g2
Vhttps://fbcdn-sphotos-d-a.akamaihd.net/hphotos-ak-ash2/v/t1.0-9/167497_10150126101213338_6228223_n.jpg?oh=45f38c2e05e1e1269176b95a75e45ab4&oe=55633307&__gda__=1431231718_a2048862952b77771edcd91ac0507171
p1678
sg4
V167497_10150126101213338_6228223_n.jpg?oh=45f38c2e05e1e1269176b95a75e45ab4&oe=55633307&__gda__=1431231718_a2048862952b77771edcd91ac0507171
p1679
sa(dp1680
g2
Vhttps://fbcdn-sphotos-h-a.akamaihd.net/hphotos-ak-ash2/v/t1.0-9/180059_10150126101063338_4390125_n.jpg?oh=8ae852c7cf4960c6452a23e8d9e67c11&oe=55550B04&__gda__=1432727525_ac292b4a35d7f1e0c3590a2deb498372
p1681
sg4
V180059_10150126101063338_4390125_n.jpg?oh=8ae852c7cf4960c6452a23e8d9e67c11&oe=55550B04&__gda__=1432727525_ac292b4a35d7f1e0c3590a2deb498372
p1682
sa(dp1683
g2
Vhttps://fbcdn-sphotos-b-a.akamaihd.net/hphotos-ak-frc3/v/t1.0-9/167600_10150126100918338_4317892_n.jpg?oh=cd9c482f446d3998392df95f7847d103&oe=55492F94&__gda__=1431628235_ed9ae1f3cb6c055a1c627fe2dbc9cdb0
p1684
sg4
V167600_10150126100918338_4317892_n.jpg?oh=cd9c482f446d3998392df95f7847d103&oe=55492F94&__gda__=1431628235_ed9ae1f3cb6c055a1c627fe2dbc9cdb0
p1685
sa(dp1686
g2
Vhttps://fbcdn-sphotos-e-a.akamaihd.net/hphotos-ak-xap1/v/t1.0-9/179850_10150126100778338_3152650_n.jpg?oh=e47bccd60633e0aed9824fe6d16f967f&oe=5557FF40&__gda__=1435908456_91f75dd91dcc3fb10853d222fdf883e5
p1687
sg4
V179850_10150126100778338_3152650_n.jpg?oh=e47bccd60633e0aed9824fe6d16f967f&oe=5557FF40&__gda__=1435908456_91f75dd91dcc3fb10853d222fdf883e5
p1688
sa(dp1689
g2
Vhttps://scontent-a.xx.fbcdn.net/hphotos-xaf1/v/t1.0-9/163747_10150126100658338_4934050_n.jpg?oh=a12d448ba7b31d99adb397cf758e92c2&oe=555BD4D4
p1690
sg4
V163747_10150126100658338_4934050_n.jpg?oh=a12d448ba7b31d99adb397cf758e92c2&oe=555BD4D4
p1691
sa(dp1692
g2
Vhttps://fbcdn-sphotos-f-a.akamaihd.net/hphotos-ak-xfa1/v/t1.0-9/165573_10150126100343338_3441668_n.jpg?oh=3e037c2356a77e504bfffeb59c25683a&oe=5555EE39&__gda__=1432154247_9f270851e0625ce74007478ce3b3a190
p1693
sg4
V165573_10150126100343338_3441668_n.jpg?oh=3e037c2356a77e504bfffeb59c25683a&oe=5555EE39&__gda__=1432154247_9f270851e0625ce74007478ce3b3a190
p1694
sa(dp1695
g2
Vhttps://scontent-a.xx.fbcdn.net/hphotos-xfp1/v/t1.0-9/180783_10150126100168338_7908025_n.jpg?oh=85df88e1e7f22a7c36058af13da9b533&oe=55581EB4
p1696
sg4
V180783_10150126100168338_7908025_n.jpg?oh=85df88e1e7f22a7c36058af13da9b533&oe=55581EB4
p1697
sa(dp1698
g2
Vhttps://scontent-a.xx.fbcdn.net/hphotos-xpf1/v/t1.0-9/180551_10150126099823338_1696899_n.jpg?oh=6f81174689bb9a3d84175a3152f583cb&oe=556424B8
p1699
sg4
V180551_10150126099823338_1696899_n.jpg?oh=6f81174689bb9a3d84175a3152f583cb&oe=556424B8
p1700
sa(dp1701
g2
Vhttps://scontent-b.xx.fbcdn.net/hphotos-xpf1/v/t1.0-9/167315_10150126099513338_7724046_n.jpg?oh=951ee4664c76e98783bf19aca2a225ec&oe=554DD9E7
p1702
sg4
V167315_10150126099513338_7724046_n.jpg?oh=951ee4664c76e98783bf19aca2a225ec&oe=554DD9E7
p1703
sa(dp1704
g2
Vhttps://fbcdn-sphotos-c-a.akamaihd.net/hphotos-ak-xpf1/v/t1.0-9/180519_10150126099298338_5394305_n.jpg?oh=120ccc684a809dc60c27e35ee3bc03af&oe=555827FC&__gda__=1432764485_cf38f4ce06f4fc3bb294ccd7001da0e5
p1705
sg4
V180519_10150126099298338_5394305_n.jpg?oh=120ccc684a809dc60c27e35ee3bc03af&oe=555827FC&__gda__=1432764485_cf38f4ce06f4fc3bb294ccd7001da0e5
p1706
sa(dp1707
g2
Vhttps://fbcdn-sphotos-d-a.akamaihd.net/hphotos-ak-prn2/v/t1.0-9/180648_10150126098963338_4629289_n.jpg?oh=cdd99fe3d2d0f1a7ca26f624238fb61f&oe=5553B15D&__gda__=1432037139_295d96f846621473c39aa2ad0a68c79e
p1708
sg4
V180648_10150126098963338_4629289_n.jpg?oh=cdd99fe3d2d0f1a7ca26f624238fb61f&oe=5553B15D&__gda__=1432037139_295d96f846621473c39aa2ad0a68c79e
p1709
sa(dp1710
g2
Vhttps://scontent-a.xx.fbcdn.net/hphotos-xaf1/v/t1.0-9/163729_10150126098428338_265007_n.jpg?oh=8c02917e057032da59db496e61023b44&oe=555958C3
p1711
sg4
V163729_10150126098428338_265007_n.jpg?oh=8c02917e057032da59db496e61023b44&oe=555958C3
p1712
sa(dp1713
g2
Vhttps://scontent-b.xx.fbcdn.net/hphotos-xfa1/v/t1.0-9/179631_10150126098033338_2215433_n.jpg?oh=fd45c9c507829b68048f83d452a5e88b&oe=554BF71E
p1714
sg4
V179631_10150126098033338_2215433_n.jpg?oh=fd45c9c507829b68048f83d452a5e88b&oe=554BF71E
p1715
sa(dp1716
g2
Vhttps://fbcdn-sphotos-f-a.akamaihd.net/hphotos-ak-xpa1/v/t1.0-9/167065_10150126097853338_7185498_n.jpg?oh=f32a4116e3ace5e1955685b2c7b511d1&oe=554A9C59&__gda__=1432074165_25e0280ddc6cf3818ddeb7815f61af50
p1717
sg4
V167065_10150126097853338_7185498_n.jpg?oh=f32a4116e3ace5e1955685b2c7b511d1&oe=554A9C59&__gda__=1432074165_25e0280ddc6cf3818ddeb7815f61af50
p1718
sa(dp1719
g2
Vhttps://scontent-a.xx.fbcdn.net/hphotos-xaf1/v/t1.0-9/165344_10150126097608338_6175905_n.jpg?oh=5c82fb4680313b4e362945daf8706ff4&oe=555D34F8
p1720
sg4
V165344_10150126097608338_6175905_n.jpg?oh=5c82fb4680313b4e362945daf8706ff4&oe=555D34F8
p1721
sa(dp1722
g2
Vhttps://fbcdn-sphotos-a-a.akamaihd.net/hphotos-ak-xaf1/v/t1.0-9/163125_10150121576353338_4729789_n.jpg?oh=8a4f567c363ff83b5efd94b7d2a5567a&oe=55610F43&__gda__=1431192466_544b2335fdfe487fcb90b0dcd0558b95
p1723
sg4
V163125_10150121576353338_4729789_n.jpg?oh=8a4f567c363ff83b5efd94b7d2a5567a&oe=55610F43&__gda__=1431192466_544b2335fdfe487fcb90b0dcd0558b95
p1724
sa(dp1725
g2
Vhttps://fbcdn-sphotos-d-a.akamaihd.net/hphotos-ak-xfa1/v/t1.0-9/166136_10150121519208338_6454983_n.jpg?oh=ca35c0c4ca6a764689ab31bc9b045a95&oe=554D600A&__gda__=1431806900_26feac2011ac1f7745416b2285fcf538
p1726
sg4
V166136_10150121519208338_6454983_n.jpg?oh=ca35c0c4ca6a764689ab31bc9b045a95&oe=554D600A&__gda__=1431806900_26feac2011ac1f7745416b2285fcf538
p1727
sa(dp1728
g2
Vhttps://fbcdn-sphotos-h-a.akamaihd.net/hphotos-ak-xfa1/v/t1.0-9/179617_10150121519038338_4756910_n.jpg?oh=3728cfa8326fe22c3aabbf8e1333ecc8&oe=55605463&__gda__=1430826973_bca9e7b7042c84c9605c05763d1229cc
p1729
sg4
V179617_10150121519038338_4756910_n.jpg?oh=3728cfa8326fe22c3aabbf8e1333ecc8&oe=55605463&__gda__=1430826973_bca9e7b7042c84c9605c05763d1229cc
p1730
sa(dp1731
g2
Vhttps://fbcdn-sphotos-g-a.akamaihd.net/hphotos-ak-xaf1/v/t1.0-9/168723_10150121518818338_6834738_n.jpg?oh=35cb60c8fe877f42a2aa9ece6e374eb6&oe=55962AA6&__gda__=1432522615_62fbf6f80b7dd1c0bffc7ae69b19c5e6
p1732
sg4
V168723_10150121518818338_6834738_n.jpg?oh=35cb60c8fe877f42a2aa9ece6e374eb6&oe=55962AA6&__gda__=1432522615_62fbf6f80b7dd1c0bffc7ae69b19c5e6
p1733
sa(dp1734
g2
Vhttps://scontent-b.xx.fbcdn.net/hphotos-xfa1/v/t1.0-9/168579_10150121518643338_2614177_n.jpg?oh=84d7c33d6e949a5aa0e250f3170cb892&oe=55663FC5
p1735
sg4
V168579_10150121518643338_2614177_n.jpg?oh=84d7c33d6e949a5aa0e250f3170cb892&oe=55663FC5
p1736
sa(dp1737
g2
Vhttps://fbcdn-sphotos-e-a.akamaihd.net/hphotos-ak-prn2/v/t1.0-9/168410_10150121518423338_7925002_n.jpg?oh=ec7b39b9b7dd84b34a1a68a62c97a37c&oe=5593ABAC&__gda__=1431537634_d1f914930c47cfa286b1eec7e5e4cad9
p1738
sg4
V168410_10150121518423338_7925002_n.jpg?oh=ec7b39b9b7dd84b34a1a68a62c97a37c&oe=5593ABAC&__gda__=1431537634_d1f914930c47cfa286b1eec7e5e4cad9
p1739
sa(dp1740
g2
Vhttps://fbcdn-sphotos-g-a.akamaihd.net/hphotos-ak-xaf1/v/t1.0-9/163122_10150121518223338_3825070_n.jpg?oh=889d5ca3d80a071a9cc71fd9cec44362&oe=554DBDB6&__gda__=1432153703_a60cc83984b290f66c3e39ad55781380
p1741
sg4
V163122_10150121518223338_3825070_n.jpg?oh=889d5ca3d80a071a9cc71fd9cec44362&oe=554DBDB6&__gda__=1432153703_a60cc83984b290f66c3e39ad55781380
p1742
sa(dp1743
g2
Vhttps://fbcdn-sphotos-b-a.akamaihd.net/hphotos-ak-xpa1/v/t1.0-9/167099_10150121518048338_4735132_n.jpg?oh=5ef9cb622a8f019c6c93a3b0792be000&oe=55602706&__gda__=1431736554_89a706af2de26e400320c15412088949
p1744
sg4
V167099_10150121518048338_4735132_n.jpg?oh=5ef9cb622a8f019c6c93a3b0792be000&oe=55602706&__gda__=1431736554_89a706af2de26e400320c15412088949
p1745
sa(dp1746
g2
Vhttps://fbcdn-sphotos-g-a.akamaihd.net/hphotos-ak-xaf1/v/t1.0-9/165174_10150121517868338_4259452_n.jpg?oh=2978e1645bea8d03dd7d04a0cec77bc0&oe=554B117E&__gda__=1432062383_7a11701e715736011bbf205f56933ca5
p1747
sg4
V165174_10150121517868338_4259452_n.jpg?oh=2978e1645bea8d03dd7d04a0cec77bc0&oe=554B117E&__gda__=1432062383_7a11701e715736011bbf205f56933ca5
p1748
sa(dp1749
g2
Vhttps://fbcdn-sphotos-g-a.akamaihd.net/hphotos-ak-xap1/v/t1.0-9/165373_10150121517623338_6703897_n.jpg?oh=f86d1bdc507ab64921f73662538a0359&oe=555A70B1&__gda__=1432902809_a1ce8af868d45c419cc6830d51cbc637
p1750
sg4
V165373_10150121517623338_6703897_n.jpg?oh=f86d1bdc507ab64921f73662538a0359&oe=555A70B1&__gda__=1432902809_a1ce8af868d45c419cc6830d51cbc637
p1751
sa(dp1752
g2
Vhttps://scontent-a.xx.fbcdn.net/hphotos-xaf1/v/t1.0-9/179235_10150121517268338_6112967_n.jpg?oh=0810b8ca453f2bba5df4c4278f311f87&oe=55636809
p1753
sg4
V179235_10150121517268338_6112967_n.jpg?oh=0810b8ca453f2bba5df4c4278f311f87&oe=55636809
p1754
sa(dp1755
g2
Vhttps://scontent-a.xx.fbcdn.net/hphotos-xaf1/v/t1.0-9/163017_10150118420613338_3712921_n.jpg?oh=ed0d220538da136b7372f4214855a19a&oe=55956641
p1756
sg4
V163017_10150118420613338_3712921_n.jpg?oh=ed0d220538da136b7372f4214855a19a&oe=55956641
p1757
sa(dp1758
g2
Vhttps://scontent-b.xx.fbcdn.net/hphotos-xpa1/v/t1.0-9/168103_10150109776408338_3268284_n.jpg?oh=835116b1d1f9624fba50a8664fc271d2&oe=554CD8E3
p1759
sg4
VAarushi Bahl It is not the best quality or anything cause its on a phone camera but its something aD8E3
p1760
sa(dp1761
g2
Vhttps://fbcdn-sphotos-a-a.akamaihd.net/hphotos-ak-xaf1/v/t1.0-9/162612_10150094832028338_3029701_n.jpg?oh=fdeb7dc5ac148ad02762ba3c6ffd2a84&oe=554A67D5&__gda__=1430876420_d0bbff53e874a48536841f18d33ce68d
p1762
sg4
V162612_10150094832028338_3029701_n.jpg?oh=fdeb7dc5ac148ad02762ba3c6ffd2a84&oe=554A67D5&__gda__=1430876420_d0bbff53e874a48536841f18d33ce68d
p1763
sa(dp1764
g2
Vhttps://fbcdn-sphotos-h-a.akamaihd.net/hphotos-ak-xpf1/v/t1.0-9/73801_500826528337_7418379_n.jpg?oh=256e97a89e1ef3ed7be934e1d26de60f&oe=555E1745&__gda__=1431119478_7b41a9ed90f5ea16e3f0c55fd7a19320
p1765
sg4
V73801_500826528337_7418379_n.jpg?oh=256e97a89e1ef3ed7be934e1d26de60f&oe=555E1745&__gda__=1431119478_7b41a9ed90f5ea16e3f0c55fd7a19320
p1766
sa(dp1767
g2
Vhttps://scontent-a.xx.fbcdn.net/hphotos-xfp1/v/t1.0-9/76596_499407378337_1250050_n.jpg?oh=af97a026f600716ad3d64e5daa6be14a&oe=554B357F
p1768
sg4
V76596_499407378337_1250050_n.jpg?oh=af97a026f600716ad3d64e5daa6be14a&oe=554B357F
p1769
sa(dp1770
g2
Vhttps://fbcdn-sphotos-g-a.akamaihd.net/hphotos-ak-xfp1/v/t1.0-9/76689_499407328337_1105653_n.jpg?oh=be7f2ebafc0ab431275d2ab84f42a059&oe=554AFDA3&__gda__=1431222363_d4462fd7c41bef16626ed75da9921d21
p1771
sg4
V76689_499407328337_1105653_n.jpg?oh=be7f2ebafc0ab431275d2ab84f42a059&oe=554AFDA3&__gda__=1431222363_d4462fd7c41bef16626ed75da9921d21
p1772
sa(dp1773
g2
Vhttps://scontent-b.xx.fbcdn.net/hphotos-xpf1/v/t1.0-9/155560_499407278337_1697908_n.jpg?oh=5eb0641b437ed1c392d3fb0fd372af1f&oe=554E94E8
p1774
sg4
V155560_499407278337_1697908_n.jpg?oh=5eb0641b437ed1c392d3fb0fd372af1f&oe=554E94E8
p1775
sa(dp1776
g2
Vhttps://scontent-b.xx.fbcdn.net/hphotos-xfa1/v/t1.0-9/154914_499407233337_1950848_n.jpg?oh=1a8fa1762270519f814b43d025ae3524&oe=5559992B
p1777
sg4
V154914_499407233337_1950848_n.jpg?oh=1a8fa1762270519f814b43d025ae3524&oe=5559992B
p1778
sa(dp1779
g2
Vhttps://scontent-a.xx.fbcdn.net/hphotos-xap1/v/t1.0-9/155738_499407138337_6957410_n.jpg?oh=315d8f835fe86a81d8e13c7492c59266&oe=55625B8D
p1780
sg4
V155738_499407138337_6957410_n.jpg?oh=315d8f835fe86a81d8e13c7492c59266&oe=55625B8D
p1781
sa(dp1782
g2
Vhttps://scontent-a.xx.fbcdn.net/hphotos-xap1/v/t1.0-9/74244_499407103337_1496172_n.jpg?oh=923c3d1b569c748734848df1d69ca2c9&oe=55501756
p1783
sg4
V74244_499407103337_1496172_n.jpg?oh=923c3d1b569c748734848df1d69ca2c9&oe=55501756
p1784
sa(dp1785
g2
Vhttps://scontent-a.xx.fbcdn.net/hphotos-xap1/v/t1.0-9/148858_499407058337_1205904_n.jpg?oh=eeaf9b57e08cde37b7677ea2160e3809&oe=5548A33C
p1786
sg4
V148858_499407058337_1205904_n.jpg?oh=eeaf9b57e08cde37b7677ea2160e3809&oe=5548A33C
p1787
sa(dp1788
g2
Vhttps://scontent-a.xx.fbcdn.net/hphotos-xap1/v/t1.0-9/150197_499407013337_3388450_n.jpg?oh=1c6aa788c52281e7e42fba38f880cf8d&oe=55928EA2
p1789
sg4
VHappy Birthday Mekko8EA2
p1790
sa(dp1791
g2
Vhttps://fbcdn-sphotos-g-a.akamaihd.net/hphotos-ak-xap1/v/t1.0-9/154645_499406958337_3916055_n.jpg?oh=8b0cae2c50f56d25bac45e6e4ef6cc46&oe=556738A9&__gda__=1435902003_0dbf0cca68c7317467ffd24904ae56f8
p1792
sg4
VAttempt 3 only way to save it was make it Monochrome Nadia Ive proven my point about your epic56f8
p1793
sa(dp1794
g2
Vhttps://fbcdn-sphotos-b-a.akamaihd.net/hphotos-ak-xpf1/v/t1.0-9/155370_499406883337_2857259_n.jpg?oh=ed450c61277b0adf7ccccf68b24bc2f6&oe=555147E6&__gda__=1432205247_8efe6da11a15e8bd54ee093b76efab96
p1795
sg4
VAttempt 2 failab96
p1796
sa(dp1797
g2
Vhttps://fbcdn-sphotos-h-a.akamaihd.net/hphotos-ak-xpf1/v/t1.0-9/148470_499406793337_4010258_n.jpg?oh=95b36be983d7391d7af69ddf4b332e25&oe=5562D87C&__gda__=1432977957_a42123d6de9fac92519097ff30fd45a2
p1798
sg4
VAttempt 1 quite ok45a2
p1799
sa(dp1800
g2
Vhttps://scontent-b.xx.fbcdn.net/hphotos-xpf1/v/t1.0-9/148450_499406728337_5752215_n.jpg?oh=085c33c1edce383bbe72b755d2515641&oe=5563D4F9
p1801
sg4
VIt lights upD4F9
p1802
sa.